
ODB1.elf:     file format elf32-littlearm

Sections:
Idx Name          Size      VMA       LMA       File off  Algn
  0 .isr_vector   0000010c  08000000  08000000  00010000  2**0
                  CONTENTS, ALLOC, LOAD, READONLY, DATA
  1 .text         00003e34  0800010c  0800010c  0001010c  2**2
                  CONTENTS, ALLOC, LOAD, READONLY, CODE
  2 .rodata       000000a0  08003f40  08003f40  00013f40  2**2
                  CONTENTS, ALLOC, LOAD, READONLY, DATA
  3 .ARM.extab    00000000  08003fe0  08003fe0  00020068  2**0
                  CONTENTS
  4 .ARM          00000000  08003fe0  08003fe0  00020068  2**0
                  CONTENTS
  5 .preinit_array 00000000  08003fe0  08003fe0  00020068  2**0
                  CONTENTS, ALLOC, LOAD, DATA
  6 .init_array   00000004  08003fe0  08003fe0  00013fe0  2**2
                  CONTENTS, ALLOC, LOAD, DATA
  7 .fini_array   00000004  08003fe4  08003fe4  00013fe4  2**2
                  CONTENTS, ALLOC, LOAD, DATA
  8 .data         00000068  20000000  08003fe8  00020000  2**2
                  CONTENTS, ALLOC, LOAD, DATA
  9 .bss          0000053c  20000068  08004050  00020068  2**2
                  ALLOC
 10 ._user_heap_stack 00000604  200005a4  08004050  000205a4  2**0
                  ALLOC
 11 .ARM.attributes 00000029  00000000  00000000  00020068  2**0
                  CONTENTS, READONLY
 12 .comment      00000043  00000000  00000000  00020091  2**0
                  CONTENTS, READONLY
 13 .debug_info   00004a18  00000000  00000000  000200d4  2**0
                  CONTENTS, READONLY, DEBUGGING, OCTETS
 14 .debug_abbrev 00000c59  00000000  00000000  00024aec  2**0
                  CONTENTS, READONLY, DEBUGGING, OCTETS
 15 .debug_loclists 00000770  00000000  00000000  00025745  2**0
                  CONTENTS, READONLY, DEBUGGING, OCTETS
 16 .debug_aranges 000000e8  00000000  00000000  00025eb5  2**0
                  CONTENTS, READONLY, DEBUGGING, OCTETS
 17 .debug_rnglists 00000134  00000000  00000000  00025f9d  2**0
                  CONTENTS, READONLY, DEBUGGING, OCTETS
 18 .debug_macro  000176f8  00000000  00000000  000260d1  2**0
                  CONTENTS, READONLY, DEBUGGING, OCTETS
 19 .debug_line   00003281  00000000  00000000  0003d7c9  2**0
                  CONTENTS, READONLY, DEBUGGING, OCTETS
 20 .debug_str    0008eaed  00000000  00000000  00040a4a  2**0
                  CONTENTS, READONLY, DEBUGGING, OCTETS
 21 .debug_frame  00000a98  00000000  00000000  000cf538  2**2
                  CONTENTS, READONLY, DEBUGGING, OCTETS

Disassembly of section .text:

0800010c <__do_global_dtors_aux>:
 800010c:	b510      	push	{r4, lr}
 800010e:	4c05      	ldr	r4, [pc, #20]	; (8000124 <__do_global_dtors_aux+0x18>)
 8000110:	7823      	ldrb	r3, [r4, #0]
 8000112:	b933      	cbnz	r3, 8000122 <__do_global_dtors_aux+0x16>
 8000114:	4b04      	ldr	r3, [pc, #16]	; (8000128 <__do_global_dtors_aux+0x1c>)
 8000116:	b113      	cbz	r3, 800011e <__do_global_dtors_aux+0x12>
 8000118:	4804      	ldr	r0, [pc, #16]	; (800012c <__do_global_dtors_aux+0x20>)
 800011a:	f3af 8000 	nop.w
 800011e:	2301      	movs	r3, #1
 8000120:	7023      	strb	r3, [r4, #0]
 8000122:	bd10      	pop	{r4, pc}
 8000124:	20000068 	.word	0x20000068
 8000128:	00000000 	.word	0x00000000
 800012c:	08003f28 	.word	0x08003f28

08000130 <frame_dummy>:
 8000130:	b508      	push	{r3, lr}
 8000132:	4b03      	ldr	r3, [pc, #12]	; (8000140 <frame_dummy+0x10>)
 8000134:	b11b      	cbz	r3, 800013e <frame_dummy+0xe>
 8000136:	4903      	ldr	r1, [pc, #12]	; (8000144 <frame_dummy+0x14>)
 8000138:	4803      	ldr	r0, [pc, #12]	; (8000148 <frame_dummy+0x18>)
 800013a:	f3af 8000 	nop.w
 800013e:	bd08      	pop	{r3, pc}
 8000140:	00000000 	.word	0x00000000
 8000144:	2000006c 	.word	0x2000006c
 8000148:	08003f28 	.word	0x08003f28

0800014c <BMP280_ReadRegister>:
	return 1;
}

//Low level fonction
HAL_StatusTypeDef BMP280_ReadRegister(BMP280 *dev, uint8_t *data, uint8_t *reg)
{
 800014c:	b570      	push	{r4, r5, r6, lr}
 800014e:	4604      	mov	r4, r0
 8000150:	460d      	mov	r5, r1
 8000152:	4616      	mov	r6, r2
	HAL_StatusTypeDef errorCode;

	HAL_GPIO_WritePin(dev->GPIO_Port, dev->CS_Pin, GPIO_PIN_RESET);
 8000154:	2200      	movs	r2, #0
 8000156:	8881      	ldrh	r1, [r0, #4]
 8000158:	6880      	ldr	r0, [r0, #8]
 800015a:	f001 fc8f 	bl	8001a7c <HAL_GPIO_WritePin>
	errorCode = HAL_SPI_Transmit(dev->SPI_Handle, reg, 1, HAL_MAX_DELAY);
 800015e:	f04f 33ff 	mov.w	r3, #4294967295
 8000162:	2201      	movs	r2, #1
 8000164:	4631      	mov	r1, r6
 8000166:	6820      	ldr	r0, [r4, #0]
 8000168:	f002 f94c 	bl	8002404 <HAL_SPI_Transmit>
	errorCode = HAL_SPI_Receive(dev->SPI_Handle, data, 1, HAL_MAX_DELAY);
 800016c:	f04f 33ff 	mov.w	r3, #4294967295
 8000170:	2201      	movs	r2, #1
 8000172:	4629      	mov	r1, r5
 8000174:	6820      	ldr	r0, [r4, #0]
 8000176:	f002 fb47 	bl	8002808 <HAL_SPI_Receive>
 800017a:	4605      	mov	r5, r0
	HAL_GPIO_WritePin(dev->GPIO_Port, dev->CS_Pin, GPIO_PIN_SET);
 800017c:	2201      	movs	r2, #1
 800017e:	88a1      	ldrh	r1, [r4, #4]
 8000180:	68a0      	ldr	r0, [r4, #8]
 8000182:	f001 fc7b 	bl	8001a7c <HAL_GPIO_WritePin>

	return errorCode;
}
 8000186:	4628      	mov	r0, r5
 8000188:	bd70      	pop	{r4, r5, r6, pc}
	...

0800018c <BMP280_WriteRegister>:

	return errorCode;
}

HAL_StatusTypeDef BMP280_WriteRegister(BMP280 *dev, uint8_t *data, uint8_t *reg)
{
 800018c:	b5f8      	push	{r3, r4, r5, r6, r7, lr}
 800018e:	4605      	mov	r5, r0
 8000190:	460e      	mov	r6, r1
 8000192:	4614      	mov	r4, r2
	HAL_StatusTypeDef errorCode;
	*reg = *reg&0x7F; //flip the MSB to 1 to write
 8000194:	7813      	ldrb	r3, [r2, #0]
 8000196:	f003 037f 	and.w	r3, r3, #127	; 0x7f
 800019a:	7013      	strb	r3, [r2, #0]

	HAL_GPIO_WritePin(GPIOA, GPIO_PIN_8, GPIO_PIN_RESET);
 800019c:	4f10      	ldr	r7, [pc, #64]	; (80001e0 <BMP280_WriteRegister+0x54>)
 800019e:	2200      	movs	r2, #0
 80001a0:	f44f 7180 	mov.w	r1, #256	; 0x100
 80001a4:	4638      	mov	r0, r7
 80001a6:	f001 fc69 	bl	8001a7c <HAL_GPIO_WritePin>
	errorCode = HAL_SPI_Transmit(dev->SPI_Handle, reg, 1, HAL_MAX_DELAY);
 80001aa:	f04f 33ff 	mov.w	r3, #4294967295
 80001ae:	2201      	movs	r2, #1
 80001b0:	4621      	mov	r1, r4
 80001b2:	6828      	ldr	r0, [r5, #0]
 80001b4:	f002 f926 	bl	8002404 <HAL_SPI_Transmit>
	errorCode = HAL_SPI_Transmit(dev->SPI_Handle, data, 1, HAL_MAX_DELAY);
 80001b8:	f04f 33ff 	mov.w	r3, #4294967295
 80001bc:	2201      	movs	r2, #1
 80001be:	4631      	mov	r1, r6
 80001c0:	6828      	ldr	r0, [r5, #0]
 80001c2:	f002 f91f 	bl	8002404 <HAL_SPI_Transmit>
 80001c6:	4605      	mov	r5, r0
	HAL_GPIO_WritePin(GPIOA, GPIO_PIN_8, GPIO_PIN_SET);
 80001c8:	2201      	movs	r2, #1
 80001ca:	f44f 7180 	mov.w	r1, #256	; 0x100
 80001ce:	4638      	mov	r0, r7
 80001d0:	f001 fc54 	bl	8001a7c <HAL_GPIO_WritePin>

	*reg = *reg|0x80; //Restore the MSB
 80001d4:	7823      	ldrb	r3, [r4, #0]
 80001d6:	f063 037f 	orn	r3, r3, #127	; 0x7f
 80001da:	7023      	strb	r3, [r4, #0]

	return errorCode;
}
 80001dc:	4628      	mov	r0, r5
 80001de:	bdf8      	pop	{r3, r4, r5, r6, r7, pc}
 80001e0:	40010800 	.word	0x40010800

080001e4 <BMP280_Init>:
{
 80001e4:	e92d 47f0 	stmdb	sp!, {r4, r5, r6, r7, r8, r9, sl, lr}
 80001e8:	b082      	sub	sp, #8
 80001ea:	4604      	mov	r4, r0
	dev->SPI_Handle = 	SPI_Handle;
 80001ec:	6001      	str	r1, [r0, #0]
	dev->GPIO_Port = 	GPIO_Port;
 80001ee:	6083      	str	r3, [r0, #8]
	dev->CS_Pin = 		CS_Pin;
 80001f0:	8082      	strh	r2, [r0, #4]
	dev->temp_C = 		0.0f;
 80001f2:	2300      	movs	r3, #0
 80001f4:	6103      	str	r3, [r0, #16]
	dev->pressure_Pa = 	0.0f;
 80001f6:	60c3      	str	r3, [r0, #12]
	uint8_t address = BMP280_REG_ID;
 80001f8:	23d0      	movs	r3, #208	; 0xd0
 80001fa:	f88d 3006 	strb.w	r3, [sp, #6]
	status = BMP280_ReadRegister(dev, &regData, &address);
 80001fe:	f10d 0206 	add.w	r2, sp, #6
 8000202:	f10d 0107 	add.w	r1, sp, #7
 8000206:	f7ff ffa1 	bl	800014c <BMP280_ReadRegister>
	if(regData != BMP280_DEVICE_ID)
 800020a:	f89d 3007 	ldrb.w	r3, [sp, #7]
 800020e:	2b58      	cmp	r3, #88	; 0x58
 8000210:	d003      	beq.n	800021a <BMP280_Init+0x36>
		return 255;
 8000212:	20ff      	movs	r0, #255	; 0xff
}
 8000214:	b002      	add	sp, #8
 8000216:	e8bd 87f0 	ldmia.w	sp!, {r4, r5, r6, r7, r8, r9, sl, pc}
 800021a:	4682      	mov	sl, r0
	regData = 0xB6;
 800021c:	23b6      	movs	r3, #182	; 0xb6
 800021e:	f88d 3007 	strb.w	r3, [sp, #7]
	address = BMP280_REG_RESET;
 8000222:	23e0      	movs	r3, #224	; 0xe0
 8000224:	f88d 3006 	strb.w	r3, [sp, #6]
	status = BMP280_WriteRegister(dev, &regData, &address);
 8000228:	f10d 0206 	add.w	r2, sp, #6
 800022c:	f10d 0107 	add.w	r1, sp, #7
 8000230:	4620      	mov	r0, r4
 8000232:	f7ff ffab 	bl	800018c <BMP280_WriteRegister>
 8000236:	4681      	mov	r9, r0
	HAL_Delay(2);
 8000238:	2002      	movs	r0, #2
 800023a:	f000 fff7 	bl	800122c <HAL_Delay>
	regData = BMP280_SETTING_CONFIG;
 800023e:	2308      	movs	r3, #8
 8000240:	f88d 3007 	strb.w	r3, [sp, #7]
	address = BMP280_REG_CONFIG;
 8000244:	23f5      	movs	r3, #245	; 0xf5
 8000246:	f88d 3006 	strb.w	r3, [sp, #6]
	status = BMP280_WriteRegister(dev, &regData, &address);
 800024a:	f10d 0206 	add.w	r2, sp, #6
 800024e:	f10d 0107 	add.w	r1, sp, #7
 8000252:	4620      	mov	r0, r4
 8000254:	f7ff ff9a 	bl	800018c <BMP280_WriteRegister>
 8000258:	4680      	mov	r8, r0
	status = BMP280_ReadRegister(dev, &regData, &address);
 800025a:	f10d 0206 	add.w	r2, sp, #6
 800025e:	f10d 0107 	add.w	r1, sp, #7
 8000262:	4620      	mov	r0, r4
 8000264:	f7ff ff72 	bl	800014c <BMP280_ReadRegister>
 8000268:	4607      	mov	r7, r0
	errorCount += ( regData != BMP280_SETTING_CONFIG);
 800026a:	f89d 5007 	ldrb.w	r5, [sp, #7]
 800026e:	3d08      	subs	r5, #8
 8000270:	bf18      	it	ne
 8000272:	2501      	movne	r5, #1
	regData = BMP280_SETTING_CTRL_MEAS;
 8000274:	2357      	movs	r3, #87	; 0x57
 8000276:	f88d 3007 	strb.w	r3, [sp, #7]
	address = BMP280_REG_CTRL_MEAS;
 800027a:	23f4      	movs	r3, #244	; 0xf4
 800027c:	f88d 3006 	strb.w	r3, [sp, #6]
	status = BMP280_WriteRegister(dev, &regData, &address);
 8000280:	f10d 0206 	add.w	r2, sp, #6
 8000284:	f10d 0107 	add.w	r1, sp, #7
 8000288:	4620      	mov	r0, r4
 800028a:	f7ff ff7f 	bl	800018c <BMP280_WriteRegister>
 800028e:	4606      	mov	r6, r0
	status = BMP280_ReadRegister(dev, &regData, &address);
 8000290:	f10d 0206 	add.w	r2, sp, #6
 8000294:	f10d 0107 	add.w	r1, sp, #7
 8000298:	4620      	mov	r0, r4
 800029a:	f7ff ff57 	bl	800014c <BMP280_ReadRegister>
	errorCount += ( regData != BMP280_SETTING_CTRL_MEAS);
 800029e:	f89d 1007 	ldrb.w	r1, [sp, #7]
 80002a2:	2957      	cmp	r1, #87	; 0x57
 80002a4:	bf0c      	ite	eq
 80002a6:	462b      	moveq	r3, r5
 80002a8:	1c6b      	addne	r3, r5, #1
 80002aa:	f1ba 0f00 	cmp.w	sl, #0
 80002ae:	bf18      	it	ne
 80002b0:	3301      	addne	r3, #1
 80002b2:	f1b9 0f00 	cmp.w	r9, #0
 80002b6:	bf18      	it	ne
 80002b8:	3301      	addne	r3, #1
 80002ba:	f1b8 0f00 	cmp.w	r8, #0
 80002be:	bf18      	it	ne
 80002c0:	3301      	addne	r3, #1
 80002c2:	2f00      	cmp	r7, #0
 80002c4:	bf18      	it	ne
 80002c6:	3301      	addne	r3, #1
 80002c8:	2e00      	cmp	r6, #0
 80002ca:	bf18      	it	ne
 80002cc:	3301      	addne	r3, #1
 80002ce:	2800      	cmp	r0, #0
 80002d0:	bf0c      	ite	eq
 80002d2:	4618      	moveq	r0, r3
 80002d4:	1c58      	addne	r0, r3, #1
	return errorCount;
 80002d6:	e79d      	b.n	8000214 <BMP280_Init+0x30>

080002d8 <ICM20602_ReadRegister>:
	return errorCount;
}

//Low level fonction
HAL_StatusTypeDef ICM20602_ReadRegister(ICM20602 *dev, uint8_t *data, uint8_t *reg)
{
 80002d8:	b570      	push	{r4, r5, r6, lr}
 80002da:	4604      	mov	r4, r0
 80002dc:	460e      	mov	r6, r1
 80002de:	4615      	mov	r5, r2
	HAL_StatusTypeDef errorCode;

	*reg = *reg|0x80; //flip the MSB to 1 to read
 80002e0:	7813      	ldrb	r3, [r2, #0]
 80002e2:	f063 037f 	orn	r3, r3, #127	; 0x7f
 80002e6:	7013      	strb	r3, [r2, #0]
	HAL_GPIO_WritePin(dev->GPIO_Port, dev->CS_Pin, GPIO_PIN_RESET);
 80002e8:	2200      	movs	r2, #0
 80002ea:	8881      	ldrh	r1, [r0, #4]
 80002ec:	6880      	ldr	r0, [r0, #8]
 80002ee:	f001 fbc5 	bl	8001a7c <HAL_GPIO_WritePin>
	errorCode = HAL_SPI_Transmit(dev->SPI_Handle, reg, 1, HAL_MAX_DELAY);
 80002f2:	f04f 33ff 	mov.w	r3, #4294967295
 80002f6:	2201      	movs	r2, #1
 80002f8:	4629      	mov	r1, r5
 80002fa:	6820      	ldr	r0, [r4, #0]
 80002fc:	f002 f882 	bl	8002404 <HAL_SPI_Transmit>
	errorCode = HAL_SPI_Receive(dev->SPI_Handle, data, 1, HAL_MAX_DELAY);
 8000300:	f04f 33ff 	mov.w	r3, #4294967295
 8000304:	2201      	movs	r2, #1
 8000306:	4631      	mov	r1, r6
 8000308:	6820      	ldr	r0, [r4, #0]
 800030a:	f002 fa7d 	bl	8002808 <HAL_SPI_Receive>
 800030e:	4606      	mov	r6, r0
	HAL_GPIO_WritePin(dev->GPIO_Port, dev->CS_Pin, GPIO_PIN_SET);
 8000310:	2201      	movs	r2, #1
 8000312:	88a1      	ldrh	r1, [r4, #4]
 8000314:	68a0      	ldr	r0, [r4, #8]
 8000316:	f001 fbb1 	bl	8001a7c <HAL_GPIO_WritePin>
	*reg = *reg&0x7F; //Restore the MSB
 800031a:	782b      	ldrb	r3, [r5, #0]
 800031c:	f003 037f 	and.w	r3, r3, #127	; 0x7f
 8000320:	702b      	strb	r3, [r5, #0]

	return errorCode;
}
 8000322:	4630      	mov	r0, r6
 8000324:	bd70      	pop	{r4, r5, r6, pc}

08000326 <ICM20602_WriteRegister>:

	return errorCode;
}

HAL_StatusTypeDef ICM20602_WriteRegister(ICM20602 *dev, uint8_t *data, uint8_t *reg)
{
 8000326:	b570      	push	{r4, r5, r6, lr}
 8000328:	4604      	mov	r4, r0
 800032a:	460d      	mov	r5, r1
 800032c:	4616      	mov	r6, r2
	HAL_StatusTypeDef errorCode;

	HAL_GPIO_WritePin(dev->GPIO_Port, dev->CS_Pin, GPIO_PIN_RESET);
 800032e:	2200      	movs	r2, #0
 8000330:	8881      	ldrh	r1, [r0, #4]
 8000332:	6880      	ldr	r0, [r0, #8]
 8000334:	f001 fba2 	bl	8001a7c <HAL_GPIO_WritePin>
	errorCode = HAL_SPI_Transmit(dev->SPI_Handle, reg, 1, HAL_MAX_DELAY);
 8000338:	f04f 33ff 	mov.w	r3, #4294967295
 800033c:	2201      	movs	r2, #1
 800033e:	4631      	mov	r1, r6
 8000340:	6820      	ldr	r0, [r4, #0]
 8000342:	f002 f85f 	bl	8002404 <HAL_SPI_Transmit>
	errorCode = HAL_SPI_Transmit(dev->SPI_Handle, data, 1, HAL_MAX_DELAY);
 8000346:	f04f 33ff 	mov.w	r3, #4294967295
 800034a:	2201      	movs	r2, #1
 800034c:	4629      	mov	r1, r5
 800034e:	6820      	ldr	r0, [r4, #0]
 8000350:	f002 f858 	bl	8002404 <HAL_SPI_Transmit>
 8000354:	4605      	mov	r5, r0
	HAL_GPIO_WritePin(dev->GPIO_Port, dev->CS_Pin, GPIO_PIN_SET);
 8000356:	2201      	movs	r2, #1
 8000358:	88a1      	ldrh	r1, [r4, #4]
 800035a:	68a0      	ldr	r0, [r4, #8]
 800035c:	f001 fb8e 	bl	8001a7c <HAL_GPIO_WritePin>

	return errorCode;
}
 8000360:	4628      	mov	r0, r5
 8000362:	bd70      	pop	{r4, r5, r6, pc}

08000364 <ICM20602_Init>:
{
 8000364:	b530      	push	{r4, r5, lr}
 8000366:	b083      	sub	sp, #12
 8000368:	4604      	mov	r4, r0
	dev->SPI_Handle = 	SPI_Handle;
 800036a:	6001      	str	r1, [r0, #0]
	dev->GPIO_Port = 	GPIO_Port;
 800036c:	6083      	str	r3, [r0, #8]
	dev->CS_Pin = 		CS_Pin;
 800036e:	8082      	strh	r2, [r0, #4]
	dev->girX = 		0.0f;
 8000370:	2300      	movs	r3, #0
 8000372:	60c3      	str	r3, [r0, #12]
	dev->girY = 		0.0f;
 8000374:	6103      	str	r3, [r0, #16]
	dev->girZ = 		0.0f;
 8000376:	6143      	str	r3, [r0, #20]
	dev->accX = 		0.0f;
 8000378:	6183      	str	r3, [r0, #24]
	dev->accY = 		0.0f;
 800037a:	61c3      	str	r3, [r0, #28]
	dev->accZ = 		0.0f;
 800037c:	6203      	str	r3, [r0, #32]
	uint8_t regData = 0x40;
 800037e:	2340      	movs	r3, #64	; 0x40
 8000380:	f88d 3007 	strb.w	r3, [sp, #7]
	uint8_t address = ICM20602_REG_I2C_IF;
 8000384:	2370      	movs	r3, #112	; 0x70
 8000386:	f88d 3006 	strb.w	r3, [sp, #6]
	status = ICM20602_WriteRegister(dev, &regData, &address);
 800038a:	f10d 0206 	add.w	r2, sp, #6
 800038e:	f10d 0107 	add.w	r1, sp, #7
 8000392:	f7ff ffc8 	bl	8000326 <ICM20602_WriteRegister>
 8000396:	4605      	mov	r5, r0
	address = ICM20602_REG_WHOAMI;
 8000398:	2375      	movs	r3, #117	; 0x75
 800039a:	f88d 3006 	strb.w	r3, [sp, #6]
	status = ICM20602_ReadRegister(dev, &regData, &address);
 800039e:	f10d 0206 	add.w	r2, sp, #6
 80003a2:	f10d 0107 	add.w	r1, sp, #7
 80003a6:	4620      	mov	r0, r4
 80003a8:	f7ff ff96 	bl	80002d8 <ICM20602_ReadRegister>
	if(regData != ICM20602_VAL_WHOAMI)
 80003ac:	f89d 3007 	ldrb.w	r3, [sp, #7]
 80003b0:	2b12      	cmp	r3, #18
 80003b2:	d107      	bne.n	80003c4 <ICM20602_Init+0x60>
	errorCount += (status != HAL_OK);
 80003b4:	3800      	subs	r0, #0
 80003b6:	bf18      	it	ne
 80003b8:	2001      	movne	r0, #1
 80003ba:	2d00      	cmp	r5, #0
 80003bc:	bf18      	it	ne
 80003be:	3001      	addne	r0, #1
}
 80003c0:	b003      	add	sp, #12
 80003c2:	bd30      	pop	{r4, r5, pc}
		return 255;
 80003c4:	20ff      	movs	r0, #255	; 0xff
 80003c6:	e7fb      	b.n	80003c0 <ICM20602_Init+0x5c>

080003c8 <fill_dma_buffer>:
        ch_val = channels->framebuffer[pos] ^ 0xff;  \
        UNPACK_CHANNEL(gpio_num);                           \
    }

static void fill_dma_buffer(uint16_t *dest, int pos, const struct led_channel_info *channels)
{
 80003c8:	e92d 41f0 	stmdb	sp!, {r4, r5, r6, r7, r8, lr}
 80003cc:	4684      	mov	ip, r0
    register uint16_t cur0 = 0, cur1 = 0, cur2 = 0, cur3 = 0, cur4 = 0, cur5 = 0, cur6 = 0, cur7 = 0;

    uint8_t ch_val;
    HANDLE_CHANNEL( 0, WS2812_CH0_GPIO);
 80003ce:	6813      	ldr	r3, [r2, #0]
 80003d0:	f813 8001 	ldrb.w	r8, [r3, r1]
 80003d4:	ea6f 0808 	mvn.w	r8, r8
 80003d8:	2300      	movs	r3, #0
 80003da:	461f      	mov	r7, r3
 80003dc:	461e      	mov	r6, r3
 80003de:	461d      	mov	r5, r3
 80003e0:	461c      	mov	r4, r3
 80003e2:	469e      	mov	lr, r3
 80003e4:	4619      	mov	r1, r3
 80003e6:	461a      	mov	r2, r3
 80003e8:	f3c8 10c0 	ubfx	r0, r8, #7, #1
 80003ec:	f360 0782 	bfi	r7, r0, #2, #1
 80003f0:	f3c8 1080 	ubfx	r0, r8, #6, #1
 80003f4:	f360 0682 	bfi	r6, r0, #2, #1
 80003f8:	f3c8 1040 	ubfx	r0, r8, #5, #1
 80003fc:	f360 0582 	bfi	r5, r0, #2, #1
 8000400:	f3c8 1000 	ubfx	r0, r8, #4, #1
 8000404:	f360 0482 	bfi	r4, r0, #2, #1
 8000408:	f3c8 00c0 	ubfx	r0, r8, #3, #1
 800040c:	f360 0e82 	bfi	lr, r0, #2, #1
 8000410:	f3c8 0080 	ubfx	r0, r8, #2, #1
 8000414:	f360 0182 	bfi	r1, r0, #2, #1
 8000418:	f3c8 0040 	ubfx	r0, r8, #1, #1
 800041c:	f360 0282 	bfi	r2, r0, #2, #1
 8000420:	f3c8 0000 	ubfx	r0, r8, #0, #1
 8000424:	f360 0382 	bfi	r3, r0, #2, #1


    dest[0] = cur0;
 8000428:	f8ac 7000 	strh.w	r7, [ip]
    dest[1] = cur1;
 800042c:	f8ac 6002 	strh.w	r6, [ip, #2]
    dest[2] = cur2;
 8000430:	f8ac 5004 	strh.w	r5, [ip, #4]
    dest[3] = cur3;
 8000434:	f8ac 4006 	strh.w	r4, [ip, #6]
    dest[4] = cur4;
 8000438:	f8ac e008 	strh.w	lr, [ip, #8]
    dest[5] = cur5;
 800043c:	f8ac 100a 	strh.w	r1, [ip, #10]
    dest[6] = cur6;
 8000440:	f8ac 200c 	strh.w	r2, [ip, #12]
    dest[7] = cur7;
 8000444:	f8ac 300e 	strh.w	r3, [ip, #14]
}
 8000448:	e8bd 81f0 	ldmia.w	sp!, {r4, r5, r6, r7, r8, pc}

0800044c <WS2812_Refresh>:

void WS2812_Refresh(const struct led_channel_info *channels)
{
 800044c:	e92d 43f0 	stmdb	sp!, {r4, r5, r6, r7, r8, r9, lr}
 8000450:	b083      	sub	sp, #12
 8000452:	4606      	mov	r6, r0
    int max_length = 0;

    /* This is what gets DMAed to the GPIO BSR / BSRR at the start/end of each bit cycle.
     * We will dynamically build this shortly
     */
    ws2812_gpio_set_bits = 0;
 8000454:	4c80      	ldr	r4, [pc, #512]	; (8000658 <WS2812_Refresh+0x20c>)
 8000456:	2100      	movs	r1, #0
 8000458:	8021      	strh	r1, [r4, #0]

    /* Pre-fill the DMA buffer, because we won't start filling things on-the-fly until the first
     * half has already been transferred.
     */
    for (i = 0; i < DMA_BUFFER_SIZE; i+= 8) {
        fill_dma_buffer(dma_buffer + i, pos, channels);
 800045a:	4d80      	ldr	r5, [pc, #512]	; (800065c <WS2812_Refresh+0x210>)
 800045c:	4602      	mov	r2, r0
 800045e:	4628      	mov	r0, r5
 8000460:	f7ff ffb2 	bl	80003c8 <fill_dma_buffer>
 8000464:	4632      	mov	r2, r6
 8000466:	2101      	movs	r1, #1
 8000468:	f105 0010 	add.w	r0, r5, #16
 800046c:	f7ff ffac 	bl	80003c8 <fill_dma_buffer>
        pos++;
    }

    max_length = 72 + (DMA_BUFFER_SIZE / 8);
    ws2812_gpio_set_bits |= (1 << WS2812_CH0_GPIO);
 8000470:	2304      	movs	r3, #4
 8000472:	8023      	strh	r3, [r4, #0]

    /* We're going to use our standard timer to generate the RESET pulse, so for now just run the
     * timer without any DMA.
     */
	__HAL_TIM_DISABLE_DMA(&htimer2, TIM_DMA_UPDATE);
 8000474:	4b7a      	ldr	r3, [pc, #488]	; (8000660 <WS2812_Refresh+0x214>)
 8000476:	681b      	ldr	r3, [r3, #0]
 8000478:	68da      	ldr	r2, [r3, #12]
 800047a:	f422 7280 	bic.w	r2, r2, #256	; 0x100
 800047e:	60da      	str	r2, [r3, #12]
	__HAL_TIM_DISABLE_DMA(&htimer2, TIM_DMA_CC1);
 8000480:	68da      	ldr	r2, [r3, #12]
 8000482:	f422 7200 	bic.w	r2, r2, #512	; 0x200
 8000486:	60da      	str	r2, [r3, #12]
	__HAL_TIM_DISABLE_DMA(&htimer2, TIM_DMA_CC2);
 8000488:	68da      	ldr	r2, [r3, #12]
 800048a:	f422 6280 	bic.w	r2, r2, #1024	; 0x400
 800048e:	60da      	str	r2, [r3, #12]

    __HAL_TIM_DISABLE(&htimer2);
 8000490:	6a19      	ldr	r1, [r3, #32]
 8000492:	f241 1211 	movw	r2, #4369	; 0x1111
 8000496:	4211      	tst	r1, r2
 8000498:	d108      	bne.n	80004ac <WS2812_Refresh+0x60>
 800049a:	6a19      	ldr	r1, [r3, #32]
 800049c:	f240 4244 	movw	r2, #1092	; 0x444
 80004a0:	4211      	tst	r1, r2
 80004a2:	d103      	bne.n	80004ac <WS2812_Refresh+0x60>
 80004a4:	681a      	ldr	r2, [r3, #0]
 80004a6:	f022 0201 	bic.w	r2, r2, #1
 80004aa:	601a      	str	r2, [r3, #0]

    /* Set all LED GPIOs to 0, to begin reset pulse */
    GPIOB->BRR = ws2812_gpio_set_bits;
 80004ac:	4b6a      	ldr	r3, [pc, #424]	; (8000658 <WS2812_Refresh+0x20c>)
 80004ae:	881a      	ldrh	r2, [r3, #0]
 80004b0:	4b6c      	ldr	r3, [pc, #432]	; (8000664 <WS2812_Refresh+0x218>)
 80004b2:	615a      	str	r2, [r3, #20]

    __HAL_TIM_ENABLE(&htimer2);
 80004b4:	4a6a      	ldr	r2, [pc, #424]	; (8000660 <WS2812_Refresh+0x214>)
 80004b6:	6811      	ldr	r1, [r2, #0]
 80004b8:	680b      	ldr	r3, [r1, #0]
 80004ba:	f043 0301 	orr.w	r3, r3, #1
 80004be:	600b      	str	r3, [r1, #0]
    /* We know the timer overflows every 1.25uS (our bit-time interval). So rather than
     * reprogram the timer for 280uS (reset pulse duration) and back, we're gonna be lazy
     * and just count out ~225 update intervals
     */
    for (i = 0; i < 225; i++) {
        while (!__HAL_TIM_GET_FLAG(&htimer2, TIM_FLAG_UPDATE));
 80004c0:	6812      	ldr	r2, [r2, #0]
 80004c2:	21e1      	movs	r1, #225	; 0xe1
        __HAL_TIM_CLEAR_FLAG(&htimer2, TIM_FLAG_UPDATE);
 80004c4:	f06f 0001 	mvn.w	r0, #1
        while (!__HAL_TIM_GET_FLAG(&htimer2, TIM_FLAG_UPDATE));
 80004c8:	6913      	ldr	r3, [r2, #16]
 80004ca:	f013 0f01 	tst.w	r3, #1
 80004ce:	d0fb      	beq.n	80004c8 <WS2812_Refresh+0x7c>
        __HAL_TIM_CLEAR_FLAG(&htimer2, TIM_FLAG_UPDATE);
 80004d0:	6110      	str	r0, [r2, #16]
    for (i = 0; i < 225; i++) {
 80004d2:	3901      	subs	r1, #1
 80004d4:	d1f8      	bne.n	80004c8 <WS2812_Refresh+0x7c>
    }

    /* Now that we're done with the RESET pulse, turn off the timer and prepare the DMA stuff */
    __HAL_TIM_DISABLE(&htimer2);
 80004d6:	6a11      	ldr	r1, [r2, #32]
 80004d8:	f241 1311 	movw	r3, #4369	; 0x1111
 80004dc:	4219      	tst	r1, r3
 80004de:	d108      	bne.n	80004f2 <WS2812_Refresh+0xa6>
 80004e0:	6a11      	ldr	r1, [r2, #32]
 80004e2:	f240 4344 	movw	r3, #1092	; 0x444
 80004e6:	4219      	tst	r1, r3
 80004e8:	d103      	bne.n	80004f2 <WS2812_Refresh+0xa6>
 80004ea:	6813      	ldr	r3, [r2, #0]
 80004ec:	f023 0301 	bic.w	r3, r3, #1
 80004f0:	6013      	str	r3, [r2, #0]
    __HAL_RCC_TIM2_CLK_ENABLE();
 80004f2:	4b5d      	ldr	r3, [pc, #372]	; (8000668 <WS2812_Refresh+0x21c>)
 80004f4:	69da      	ldr	r2, [r3, #28]
 80004f6:	f042 0201 	orr.w	r2, r2, #1
 80004fa:	61da      	str	r2, [r3, #28]
 80004fc:	69db      	ldr	r3, [r3, #28]
 80004fe:	f003 0301 	and.w	r3, r3, #1
 8000502:	9301      	str	r3, [sp, #4]
 8000504:	9b01      	ldr	r3, [sp, #4]
    hdma_tim2_update.Instance = DMA1_Channel2;
 8000506:	4f59      	ldr	r7, [pc, #356]	; (800066c <WS2812_Refresh+0x220>)
 8000508:	4b59      	ldr	r3, [pc, #356]	; (8000670 <WS2812_Refresh+0x224>)
 800050a:	603b      	str	r3, [r7, #0]
    hdma_tim2_update.Init.Direction = DMA_MEMORY_TO_PERIPH;
 800050c:	f04f 0810 	mov.w	r8, #16
 8000510:	f8c7 8004 	str.w	r8, [r7, #4]
    hdma_tim2_update.Init.PeriphInc = DMA_PINC_DISABLE;
 8000514:	2300      	movs	r3, #0
 8000516:	60bb      	str	r3, [r7, #8]
    hdma_tim2_update.Init.MemInc = DMA_MINC_DISABLE;
 8000518:	60fb      	str	r3, [r7, #12]
    hdma_tim2_update.Init.PeriphDataAlignment = DMA_PDATAALIGN_WORD;
 800051a:	f44f 7c00 	mov.w	ip, #512	; 0x200
 800051e:	f8c7 c010 	str.w	ip, [r7, #16]
    hdma_tim2_update.Init.MemDataAlignment = DMA_MDATAALIGN_HALFWORD;
 8000522:	f44f 6080 	mov.w	r0, #1024	; 0x400
 8000526:	6178      	str	r0, [r7, #20]
    hdma_tim2_update.Init.Mode = DMA_CIRCULAR;
 8000528:	2120      	movs	r1, #32
 800052a:	61b9      	str	r1, [r7, #24]
    hdma_tim2_update.Init.Priority = DMA_PRIORITY_VERY_HIGH;
 800052c:	f44f 5240 	mov.w	r2, #12288	; 0x3000
 8000530:	61fa      	str	r2, [r7, #28]
    hdma_tim2_pwm_ch1.Instance = DMA1_Channel5;
 8000532:	4d50      	ldr	r5, [pc, #320]	; (8000674 <WS2812_Refresh+0x228>)
 8000534:	4c50      	ldr	r4, [pc, #320]	; (8000678 <WS2812_Refresh+0x22c>)
 8000536:	602c      	str	r4, [r5, #0]
    hdma_tim2_pwm_ch1.Init.Direction = DMA_MEMORY_TO_PERIPH;
 8000538:	f8c5 8004 	str.w	r8, [r5, #4]
    hdma_tim2_pwm_ch1.Init.PeriphInc = DMA_PINC_DISABLE;
 800053c:	60ab      	str	r3, [r5, #8]
    hdma_tim2_pwm_ch1.Init.MemInc = DMA_MINC_ENABLE;
 800053e:	2480      	movs	r4, #128	; 0x80
 8000540:	60ec      	str	r4, [r5, #12]
    hdma_tim2_pwm_ch1.Init.PeriphDataAlignment = DMA_PDATAALIGN_WORD;
 8000542:	f8c5 c010 	str.w	ip, [r5, #16]
    hdma_tim2_pwm_ch1.Init.MemDataAlignment = DMA_MDATAALIGN_HALFWORD;
 8000546:	6168      	str	r0, [r5, #20]
    hdma_tim2_pwm_ch1.Init.Mode = DMA_CIRCULAR;
 8000548:	61a9      	str	r1, [r5, #24]
    hdma_tim2_pwm_ch1.Init.Priority = DMA_PRIORITY_VERY_HIGH;
 800054a:	61ea      	str	r2, [r5, #28]
    hdma_tim2_pwm_ch2.Instance = DMA1_Channel7;
 800054c:	4c4b      	ldr	r4, [pc, #300]	; (800067c <WS2812_Refresh+0x230>)
 800054e:	f8df e130 	ldr.w	lr, [pc, #304]	; 8000680 <WS2812_Refresh+0x234>
 8000552:	f8c4 e000 	str.w	lr, [r4]
    hdma_tim2_pwm_ch2.Init.Direction = DMA_MEMORY_TO_PERIPH;
 8000556:	f8c4 8004 	str.w	r8, [r4, #4]
    hdma_tim2_pwm_ch2.Init.PeriphInc = DMA_PINC_DISABLE;
 800055a:	60a3      	str	r3, [r4, #8]
    hdma_tim2_pwm_ch2.Init.MemInc = DMA_MINC_DISABLE;
 800055c:	60e3      	str	r3, [r4, #12]
    hdma_tim2_pwm_ch2.Init.PeriphDataAlignment = DMA_PDATAALIGN_WORD;
 800055e:	f8c4 c010 	str.w	ip, [r4, #16]
    hdma_tim2_pwm_ch2.Init.MemDataAlignment = DMA_MDATAALIGN_HALFWORD;
 8000562:	6160      	str	r0, [r4, #20]
    hdma_tim2_pwm_ch2.Init.Mode = DMA_CIRCULAR;
 8000564:	61a1      	str	r1, [r4, #24]
    hdma_tim2_pwm_ch2.Init.Priority = DMA_PRIORITY_VERY_HIGH;
 8000566:	61e2      	str	r2, [r4, #28]
    HAL_DMA_Init(&hdma_tim2_update);
 8000568:	4638      	mov	r0, r7
 800056a:	f001 f839 	bl	80015e0 <HAL_DMA_Init>
    HAL_DMA_Init(&hdma_tim2_pwm_ch1);
 800056e:	4628      	mov	r0, r5
 8000570:	f001 f836 	bl	80015e0 <HAL_DMA_Init>
    HAL_DMA_Init(&hdma_tim2_pwm_ch2);
 8000574:	4620      	mov	r0, r4
 8000576:	f001 f833 	bl	80015e0 <HAL_DMA_Init>
    HAL_DMA_Start(&hdma_tim2_update, (uint32_t)&ws2812_gpio_set_bits, (uint32_t)&gpio_bank->BSRR, DMA_BUFFER_SIZE);
 800057a:	f8df 90dc 	ldr.w	r9, [pc, #220]	; 8000658 <WS2812_Refresh+0x20c>
 800057e:	4643      	mov	r3, r8
 8000580:	4a40      	ldr	r2, [pc, #256]	; (8000684 <WS2812_Refresh+0x238>)
 8000582:	4649      	mov	r1, r9
 8000584:	4638      	mov	r0, r7
 8000586:	f001 f861 	bl	800164c <HAL_DMA_Start>
	HAL_DMA_Start(&hdma_tim2_pwm_ch1, (uint32_t)dma_buffer, (uint32_t) &gpio_bank->BRR, DMA_BUFFER_SIZE);
 800058a:	4f3f      	ldr	r7, [pc, #252]	; (8000688 <WS2812_Refresh+0x23c>)
 800058c:	4643      	mov	r3, r8
 800058e:	463a      	mov	r2, r7
 8000590:	4932      	ldr	r1, [pc, #200]	; (800065c <WS2812_Refresh+0x210>)
 8000592:	4628      	mov	r0, r5
 8000594:	f001 f85a 	bl	800164c <HAL_DMA_Start>
    HAL_DMA_Start(&hdma_tim2_pwm_ch2, (uint32_t)&ws2812_gpio_set_bits, (uint32_t)&gpio_bank->BRR, DMA_BUFFER_SIZE);
 8000598:	4643      	mov	r3, r8
 800059a:	463a      	mov	r2, r7
 800059c:	4649      	mov	r1, r9
 800059e:	4620      	mov	r0, r4
 80005a0:	f001 f854 	bl	800164c <HAL_DMA_Start>
	__HAL_TIM_ENABLE_DMA(&htimer2, TIM_DMA_UPDATE);
 80005a4:	4b2e      	ldr	r3, [pc, #184]	; (8000660 <WS2812_Refresh+0x214>)
 80005a6:	681b      	ldr	r3, [r3, #0]
 80005a8:	68da      	ldr	r2, [r3, #12]
 80005aa:	f442 7280 	orr.w	r2, r2, #256	; 0x100
 80005ae:	60da      	str	r2, [r3, #12]
	__HAL_TIM_ENABLE_DMA(&htimer2, TIM_DMA_CC1);
 80005b0:	68da      	ldr	r2, [r3, #12]
 80005b2:	f442 7200 	orr.w	r2, r2, #512	; 0x200
 80005b6:	60da      	str	r2, [r3, #12]
	__HAL_TIM_ENABLE_DMA(&htimer2, TIM_DMA_CC2);
 80005b8:	68da      	ldr	r2, [r3, #12]
 80005ba:	f442 6280 	orr.w	r2, r2, #1024	; 0x400
 80005be:	60da      	str	r2, [r3, #12]

    /* We set the timer to juuust before the overflow condition, so that the UPDATE event happens
     * before the CH1 / CH2 match events. We want this so that the UPDATE event gives us a clean
     * starting "high" level for the first edge of the first bit.
     */
    __HAL_TIM_SET_COUNTER(&htimer2, __HAL_TIM_GET_AUTORELOAD(&htimer2) - 10);
 80005c0:	6ada      	ldr	r2, [r3, #44]	; 0x2c
 80005c2:	3a0a      	subs	r2, #10
 80005c4:	625a      	str	r2, [r3, #36]	; 0x24

    /* Clear the DMA transfer status flags for the DMA we're using */
    DMA1->IFCR = (DMA_IFCR_CTCIF5 | DMA_IFCR_CHTIF5);
 80005c6:	4a31      	ldr	r2, [pc, #196]	; (800068c <WS2812_Refresh+0x240>)
 80005c8:	f44f 21c0 	mov.w	r1, #393216	; 0x60000
 80005cc:	6051      	str	r1, [r2, #4]

    /* Enable the timer.... and so it begins */
    __HAL_TIM_ENABLE(&htimer2);
 80005ce:	681a      	ldr	r2, [r3, #0]
 80005d0:	f042 0201 	orr.w	r2, r2, #1
 80005d4:	601a      	str	r2, [r3, #0]
        pos++;
 80005d6:	2402      	movs	r4, #2

    while(1) {
        /* Wait for DMA full-transfer or half-transfer event. This tells us when to fill the next buffer */
        if (!(DMA1->ISR & (DMA_ISR_TCIF5 | DMA_ISR_HTIF5))) {
 80005d8:	4d2c      	ldr	r5, [pc, #176]	; (800068c <WS2812_Refresh+0x240>)
            cycles++;
            continue;
        }

        uint16_t *dest = dma_buffer;
 80005da:	4f20      	ldr	r7, [pc, #128]	; (800065c <WS2812_Refresh+0x210>)

        /* Figure out if we're filling the first half of the DMA buffer, or the second half */
        if (DMA1->ISR & DMA_ISR_TCIF5)
            dest += DMA_BUFFER_FILL_SIZE;
 80005dc:	44b8      	add	r8, r7
        if (!(DMA1->ISR & (DMA_ISR_TCIF5 | DMA_ISR_HTIF5))) {
 80005de:	682b      	ldr	r3, [r5, #0]
 80005e0:	f413 2fc0 	tst.w	r3, #393216	; 0x60000
 80005e4:	d0fb      	beq.n	80005de <WS2812_Refresh+0x192>
        if (DMA1->ISR & DMA_ISR_TCIF5)
 80005e6:	682b      	ldr	r3, [r5, #0]
 80005e8:	f413 3f00 	tst.w	r3, #131072	; 0x20000
            dest += DMA_BUFFER_FILL_SIZE;
 80005ec:	bf14      	ite	ne
 80005ee:	4640      	movne	r0, r8
        uint16_t *dest = dma_buffer;
 80005f0:	4638      	moveq	r0, r7

        /* Clear DMA event flags */
        DMA1->IFCR = (DMA_IFCR_CTCIF5 | DMA_IFCR_CHTIF5);
 80005f2:	f44f 23c0 	mov.w	r3, #393216	; 0x60000
 80005f6:	606b      	str	r3, [r5, #4]

        /* Unpack one new byte from each channel, into eight words in our DMA buffer
         * Each 16-bit word in the DMA buffer contains to one bit of the output byte (from each channel)
         */
        for (i = 0; i < DMA_BUFFER_FILL_SIZE; i+= 8) {
            fill_dma_buffer(dest + i, pos, channels);
 80005f8:	4632      	mov	r2, r6
 80005fa:	4621      	mov	r1, r4
 80005fc:	f7ff fee4 	bl	80003c8 <fill_dma_buffer>
            pos++;
 8000600:	3401      	adds	r4, #1
        }

        if (pos > max_length)
 8000602:	2c4b      	cmp	r4, #75	; 0x4b
 8000604:	d1eb      	bne.n	80005de <WS2812_Refresh+0x192>
            break;
    }

    __HAL_TIM_DISABLE(&htimer2);
 8000606:	4b16      	ldr	r3, [pc, #88]	; (8000660 <WS2812_Refresh+0x214>)
 8000608:	681b      	ldr	r3, [r3, #0]
 800060a:	6a19      	ldr	r1, [r3, #32]
 800060c:	f241 1211 	movw	r2, #4369	; 0x1111
 8000610:	4211      	tst	r1, r2
 8000612:	d108      	bne.n	8000626 <WS2812_Refresh+0x1da>
 8000614:	6a19      	ldr	r1, [r3, #32]
 8000616:	f240 4244 	movw	r2, #1092	; 0x444
 800061a:	4211      	tst	r1, r2
 800061c:	d103      	bne.n	8000626 <WS2812_Refresh+0x1da>
 800061e:	681a      	ldr	r2, [r3, #0]
 8000620:	f022 0201 	bic.w	r2, r2, #1
 8000624:	601a      	str	r2, [r3, #0]

    /* Set all LED GPIOs back to 0 */
    GPIOB->BRR = ws2812_gpio_set_bits;
 8000626:	4b0c      	ldr	r3, [pc, #48]	; (8000658 <WS2812_Refresh+0x20c>)
 8000628:	881a      	ldrh	r2, [r3, #0]
 800062a:	4b0e      	ldr	r3, [pc, #56]	; (8000664 <WS2812_Refresh+0x218>)
 800062c:	615a      	str	r2, [r3, #20]

	__HAL_DMA_DISABLE(&hdma_tim2_update);
 800062e:	4b0f      	ldr	r3, [pc, #60]	; (800066c <WS2812_Refresh+0x220>)
 8000630:	681a      	ldr	r2, [r3, #0]
 8000632:	6813      	ldr	r3, [r2, #0]
 8000634:	f023 0301 	bic.w	r3, r3, #1
 8000638:	6013      	str	r3, [r2, #0]
	__HAL_DMA_DISABLE(&hdma_tim2_pwm_ch1);
 800063a:	4b0e      	ldr	r3, [pc, #56]	; (8000674 <WS2812_Refresh+0x228>)
 800063c:	681a      	ldr	r2, [r3, #0]
 800063e:	6813      	ldr	r3, [r2, #0]
 8000640:	f023 0301 	bic.w	r3, r3, #1
 8000644:	6013      	str	r3, [r2, #0]
	__HAL_DMA_DISABLE(&hdma_tim2_pwm_ch2);
 8000646:	4b0d      	ldr	r3, [pc, #52]	; (800067c <WS2812_Refresh+0x230>)
 8000648:	681a      	ldr	r2, [r3, #0]
 800064a:	6813      	ldr	r3, [r2, #0]
 800064c:	f023 0301 	bic.w	r3, r3, #1
 8000650:	6013      	str	r3, [r2, #0]
}
 8000652:	b003      	add	sp, #12
 8000654:	e8bd 83f0 	ldmia.w	sp!, {r4, r5, r6, r7, r8, r9, pc}
 8000658:	200001b8 	.word	0x200001b8
 800065c:	20000084 	.word	0x20000084
 8000660:	20000170 	.word	0x20000170
 8000664:	40010c00 	.word	0x40010c00
 8000668:	40021000 	.word	0x40021000
 800066c:	2000012c 	.word	0x2000012c
 8000670:	4002001c 	.word	0x4002001c
 8000674:	200000a4 	.word	0x200000a4
 8000678:	40020058 	.word	0x40020058
 800067c:	200000e8 	.word	0x200000e8
 8000680:	40020080 	.word	0x40020080
 8000684:	40010c10 	.word	0x40010c10
 8000688:	40010c14 	.word	0x40010c14
 800068c:	40020000 	.word	0x40020000

08000690 <WS2812_Init>:

void WS2812_Init()
{
 8000690:	b570      	push	{r4, r5, r6, lr}
 8000692:	b08e      	sub	sp, #56	; 0x38
    /* DMA controller clock enable */
    __HAL_RCC_DMA1_CLK_ENABLE();
 8000694:	4b2d      	ldr	r3, [pc, #180]	; (800074c <WS2812_Init+0xbc>)
 8000696:	695a      	ldr	r2, [r3, #20]
 8000698:	f042 0201 	orr.w	r2, r2, #1
 800069c:	615a      	str	r2, [r3, #20]
 800069e:	695b      	ldr	r3, [r3, #20]
 80006a0:	f003 0301 	and.w	r3, r3, #1
 80006a4:	9300      	str	r3, [sp, #0]
 80006a6:	9b00      	ldr	r3, [sp, #0]

    /* DMA interrupt init, not that we're using it... */
    HAL_NVIC_SetPriority(DMA1_Channel2_IRQn, 0, 0);
 80006a8:	2200      	movs	r2, #0
 80006aa:	4611      	mov	r1, r2
 80006ac:	200c      	movs	r0, #12
 80006ae:	f000 ff3d 	bl	800152c <HAL_NVIC_SetPriority>
    HAL_NVIC_SetPriority(DMA1_Channel5_IRQn, 0, 0);
 80006b2:	2200      	movs	r2, #0
 80006b4:	4611      	mov	r1, r2
 80006b6:	200f      	movs	r0, #15
 80006b8:	f000 ff38 	bl	800152c <HAL_NVIC_SetPriority>
    HAL_NVIC_SetPriority(DMA1_Channel7_IRQn, 0, 0);
 80006bc:	2200      	movs	r2, #0
 80006be:	4611      	mov	r1, r2
 80006c0:	2011      	movs	r0, #17
 80006c2:	f000 ff33 	bl	800152c <HAL_NVIC_SetPriority>
    TIM_ClockConfigTypeDef sClockSourceConfig = {0};
 80006c6:	2400      	movs	r4, #0
 80006c8:	9403      	str	r4, [sp, #12]
 80006ca:	9404      	str	r4, [sp, #16]
 80006cc:	9405      	str	r4, [sp, #20]
 80006ce:	9406      	str	r4, [sp, #24]
    TIM_MasterConfigTypeDef sMasterConfig = {0};
 80006d0:	9401      	str	r4, [sp, #4]
 80006d2:	9402      	str	r4, [sp, #8]
    TIM_OC_InitTypeDef sConfigOC = {0};
 80006d4:	9407      	str	r4, [sp, #28]
 80006d6:	9408      	str	r4, [sp, #32]
 80006d8:	9409      	str	r4, [sp, #36]	; 0x24
 80006da:	940a      	str	r4, [sp, #40]	; 0x28
 80006dc:	940b      	str	r4, [sp, #44]	; 0x2c
 80006de:	940c      	str	r4, [sp, #48]	; 0x30
 80006e0:	940d      	str	r4, [sp, #52]	; 0x34
    htimer2.Instance = TIM2;
 80006e2:	4d1b      	ldr	r5, [pc, #108]	; (8000750 <WS2812_Init+0xc0>)
 80006e4:	f04f 4380 	mov.w	r3, #1073741824	; 0x40000000
 80006e8:	602b      	str	r3, [r5, #0]
    htimer2.Init.Prescaler = 0;
 80006ea:	606c      	str	r4, [r5, #4]
    htimer2.Init.CounterMode = TIM_COUNTERMODE_UP;
 80006ec:	60ac      	str	r4, [r5, #8]
    htimer2.Init.Period = WS2812_TIMER_PERIOD;
 80006ee:	235a      	movs	r3, #90	; 0x5a
 80006f0:	60eb      	str	r3, [r5, #12]
    htimer2.Init.ClockDivision = TIM_CLOCKDIVISION_DIV1;
 80006f2:	612c      	str	r4, [r5, #16]
    htimer2.Init.AutoReloadPreload = TIM_AUTORELOAD_PRELOAD_DISABLE;
 80006f4:	61ac      	str	r4, [r5, #24]
    HAL_TIM_Base_Init(&htimer2);
 80006f6:	4628      	mov	r0, r5
 80006f8:	f002 fa1c 	bl	8002b34 <HAL_TIM_Base_Init>
    sClockSourceConfig.ClockSource = TIM_CLOCKSOURCE_INTERNAL;
 80006fc:	f44f 5380 	mov.w	r3, #4096	; 0x1000
 8000700:	9303      	str	r3, [sp, #12]
    HAL_TIM_ConfigClockSource(&htimer2, &sClockSourceConfig);
 8000702:	a903      	add	r1, sp, #12
 8000704:	4628      	mov	r0, r5
 8000706:	f002 fb15 	bl	8002d34 <HAL_TIM_ConfigClockSource>
    HAL_TIM_PWM_Init(&htimer2);
 800070a:	4628      	mov	r0, r5
 800070c:	f002 fa3e 	bl	8002b8c <HAL_TIM_PWM_Init>
    sMasterConfig.MasterOutputTrigger = TIM_TRGO_RESET;
 8000710:	9401      	str	r4, [sp, #4]
    sMasterConfig.MasterSlaveMode = TIM_MASTERSLAVEMODE_DISABLE;
 8000712:	9402      	str	r4, [sp, #8]
    HAL_TIMEx_MasterConfigSynchronization(&htimer2, &sMasterConfig);
 8000714:	a901      	add	r1, sp, #4
 8000716:	4628      	mov	r0, r5
 8000718:	f002 fbc2 	bl	8002ea0 <HAL_TIMEx_MasterConfigSynchronization>
    sConfigOC.OCMode = TIM_OCMODE_PWM1;
 800071c:	2660      	movs	r6, #96	; 0x60
 800071e:	9607      	str	r6, [sp, #28]
    sConfigOC.Pulse = WS2812_TIMER_PWM_CH1_TIME;
 8000720:	231c      	movs	r3, #28
 8000722:	9308      	str	r3, [sp, #32]
    sConfigOC.OCPolarity = TIM_OCPOLARITY_HIGH;
 8000724:	9409      	str	r4, [sp, #36]	; 0x24
    sConfigOC.OCFastMode = TIM_OCFAST_DISABLE;
 8000726:	940b      	str	r4, [sp, #44]	; 0x2c
    HAL_TIM_PWM_ConfigChannel(&htimer2, &sConfigOC, TIM_CHANNEL_1);
 8000728:	4622      	mov	r2, r4
 800072a:	eb0d 0103 	add.w	r1, sp, r3
 800072e:	4628      	mov	r0, r5
 8000730:	f002 fa86 	bl	8002c40 <HAL_TIM_PWM_ConfigChannel>
    sConfigOC.OCMode = TIM_OCMODE_PWM1;
 8000734:	9607      	str	r6, [sp, #28]
    sConfigOC.Pulse = WS2812_TIMER_PWM_CH2_TIME;
 8000736:	2339      	movs	r3, #57	; 0x39
 8000738:	9308      	str	r3, [sp, #32]
    sConfigOC.OCPolarity = TIM_OCPOLARITY_HIGH;
 800073a:	9409      	str	r4, [sp, #36]	; 0x24
    sConfigOC.OCFastMode = TIM_OCFAST_DISABLE;
 800073c:	940b      	str	r4, [sp, #44]	; 0x2c
    HAL_TIM_PWM_ConfigChannel(&htimer2, &sConfigOC, TIM_CHANNEL_2);
 800073e:	2204      	movs	r2, #4
 8000740:	a907      	add	r1, sp, #28
 8000742:	4628      	mov	r0, r5
 8000744:	f002 fa7c 	bl	8002c40 <HAL_TIM_PWM_ConfigChannel>

    ws2812_timer2_init();
}
 8000748:	b00e      	add	sp, #56	; 0x38
 800074a:	bd70      	pop	{r4, r5, r6, pc}
 800074c:	40021000 	.word	0x40021000
 8000750:	20000170 	.word	0x20000170

08000754 <WS2812_Solid_Colors>:

void WS2812_Solid_Colors(struct pixel *framebuffer, const struct led_channel_info *channels, uint8_t r, uint8_t g, uint8_t b)
{
 8000754:	e92d 41f0 	stmdb	sp!, {r4, r5, r6, r7, r8, lr}
 8000758:	4604      	mov	r4, r0
 800075a:	4608      	mov	r0, r1
 800075c:	469c      	mov	ip, r3
    blue_offset = (FRAMEBUFFER_SIZE / 4) * ((0 >> 2) & 0x03);

    /* Just generate a different-looking psychedelic-looking pattern for each channel, to
     * test/prove that each channel is receiving a unique pattern
     */
    for (i = 0; i < FRAMEBUFFER_SIZE / 2; i++) {
 800075e:	f04f 0e00 	mov.w	lr, #0
        framebuffer[(i + red_offset + r) % FRAMEBUFFER_SIZE].r = i;
 8000762:	1ad6      	subs	r6, r2, r3
 8000764:	4d1e      	ldr	r5, [pc, #120]	; (80007e0 <WS2812_Solid_Colors+0x8c>)
        framebuffer[(i + green_offset + g) % FRAMEBUFFER_SIZE].g = i;
        framebuffer[(i + blue_offset + b) % FRAMEBUFFER_SIZE].b = i;
 8000766:	f89d 1018 	ldrb.w	r1, [sp, #24]
 800076a:	1ac9      	subs	r1, r1, r3
        framebuffer[(i + red_offset + r) % FRAMEBUFFER_SIZE].r = i;
 800076c:	fa5f f28e 	uxtb.w	r2, lr
 8000770:	eb06 030c 	add.w	r3, r6, ip
 8000774:	fb85 7803 	smull	r7, r8, r5, r3
 8000778:	17df      	asrs	r7, r3, #31
 800077a:	ebc7 07a8 	rsb	r7, r7, r8, asr #2
 800077e:	eb07 0747 	add.w	r7, r7, r7, lsl #1
 8000782:	eba3 03c7 	sub.w	r3, r3, r7, lsl #3
 8000786:	eb03 0343 	add.w	r3, r3, r3, lsl #1
 800078a:	4423      	add	r3, r4
 800078c:	705a      	strb	r2, [r3, #1]
        framebuffer[(i + green_offset + g) % FRAMEBUFFER_SIZE].g = i;
 800078e:	fb85 370c 	smull	r3, r7, r5, ip
 8000792:	ea4f 73ec 	mov.w	r3, ip, asr #31
 8000796:	ebc3 03a7 	rsb	r3, r3, r7, asr #2
 800079a:	eb03 0343 	add.w	r3, r3, r3, lsl #1
 800079e:	ebac 03c3 	sub.w	r3, ip, r3, lsl #3
 80007a2:	eb03 0343 	add.w	r3, r3, r3, lsl #1
 80007a6:	54e2      	strb	r2, [r4, r3]
        framebuffer[(i + blue_offset + b) % FRAMEBUFFER_SIZE].b = i;
 80007a8:	eb01 030c 	add.w	r3, r1, ip
 80007ac:	fb85 7803 	smull	r7, r8, r5, r3
 80007b0:	17df      	asrs	r7, r3, #31
 80007b2:	ebc7 07a8 	rsb	r7, r7, r8, asr #2
 80007b6:	eb07 0747 	add.w	r7, r7, r7, lsl #1
 80007ba:	eba3 03c7 	sub.w	r3, r3, r7, lsl #3
 80007be:	eb03 0343 	add.w	r3, r3, r3, lsl #1
 80007c2:	4423      	add	r3, r4
 80007c4:	709a      	strb	r2, [r3, #2]
    for (i = 0; i < FRAMEBUFFER_SIZE / 2; i++) {
 80007c6:	f10e 0e01 	add.w	lr, lr, #1
 80007ca:	f10c 0c01 	add.w	ip, ip, #1
 80007ce:	f1be 0f0c 	cmp.w	lr, #12
 80007d2:	d1cb      	bne.n	800076c <WS2812_Solid_Colors+0x18>
  \details Disables IRQ interrupts by setting the I-bit in the CPSR.
           Can only be executed in Privileged modes.
 */
__STATIC_FORCEINLINE void __disable_irq(void)
{
  __ASM volatile ("cpsid i" : : : "memory");
 80007d4:	b672      	cpsid	i
    }

    __disable_irq();
    WS2812_Refresh(channels);
 80007d6:	f7ff fe39 	bl	800044c <WS2812_Refresh>
  __ASM volatile ("cpsie i" : : : "memory");
 80007da:	b662      	cpsie	i
    __enable_irq();
}
 80007dc:	e8bd 81f0 	ldmia.w	sp!, {r4, r5, r6, r7, r8, pc}
 80007e0:	2aaaaaab 	.word	0x2aaaaaab

080007e4 <SystemClock_Config>:
/**
  * @brief System Clock Configuration
  * @retval None
  */
void SystemClock_Config(void)
{
 80007e4:	b500      	push	{lr}
 80007e6:	b095      	sub	sp, #84	; 0x54
  RCC_OscInitTypeDef RCC_OscInitStruct = {0};
 80007e8:	2300      	movs	r3, #0
 80007ea:	930d      	str	r3, [sp, #52]	; 0x34
 80007ec:	930f      	str	r3, [sp, #60]	; 0x3c
 80007ee:	9310      	str	r3, [sp, #64]	; 0x40
  RCC_ClkInitTypeDef RCC_ClkInitStruct = {0};
 80007f0:	9305      	str	r3, [sp, #20]
 80007f2:	9306      	str	r3, [sp, #24]
 80007f4:	9307      	str	r3, [sp, #28]
 80007f6:	9308      	str	r3, [sp, #32]
 80007f8:	9309      	str	r3, [sp, #36]	; 0x24
  RCC_PeriphCLKInitTypeDef PeriphClkInit = {0};
 80007fa:	9301      	str	r3, [sp, #4]
 80007fc:	9302      	str	r3, [sp, #8]
 80007fe:	9303      	str	r3, [sp, #12]
 8000800:	9304      	str	r3, [sp, #16]

  /** Initializes the RCC Oscillators according to the specified parameters
  * in the RCC_OscInitTypeDef structure.
  */
  RCC_OscInitStruct.OscillatorType = RCC_OSCILLATORTYPE_HSE;
 8000802:	2201      	movs	r2, #1
 8000804:	920a      	str	r2, [sp, #40]	; 0x28
  RCC_OscInitStruct.HSEState = RCC_HSE_ON;
 8000806:	f44f 3380 	mov.w	r3, #65536	; 0x10000
 800080a:	930b      	str	r3, [sp, #44]	; 0x2c
  RCC_OscInitStruct.HSEPredivValue = RCC_HSE_PREDIV_DIV2;
 800080c:	f44f 3100 	mov.w	r1, #131072	; 0x20000
 8000810:	910c      	str	r1, [sp, #48]	; 0x30
  RCC_OscInitStruct.HSIState = RCC_HSI_ON;
 8000812:	920e      	str	r2, [sp, #56]	; 0x38
  RCC_OscInitStruct.PLL.PLLState = RCC_PLL_ON;
 8000814:	2202      	movs	r2, #2
 8000816:	9211      	str	r2, [sp, #68]	; 0x44
  RCC_OscInitStruct.PLL.PLLSource = RCC_PLLSOURCE_HSE;
 8000818:	9312      	str	r3, [sp, #72]	; 0x48
  RCC_OscInitStruct.PLL.PLLMUL = RCC_PLL_MUL9;
 800081a:	f44f 13e0 	mov.w	r3, #1835008	; 0x1c0000
 800081e:	9313      	str	r3, [sp, #76]	; 0x4c
  if (HAL_RCC_OscConfig(&RCC_OscInitStruct) != HAL_OK)
 8000820:	a80a      	add	r0, sp, #40	; 0x28
 8000822:	f001 f931 	bl	8001a88 <HAL_RCC_OscConfig>
 8000826:	b9c8      	cbnz	r0, 800085c <SystemClock_Config+0x78>
    Error_Handler();
  }

  /** Initializes the CPU, AHB and APB buses clocks
  */
  RCC_ClkInitStruct.ClockType = RCC_CLOCKTYPE_HCLK|RCC_CLOCKTYPE_SYSCLK
 8000828:	230f      	movs	r3, #15
 800082a:	9305      	str	r3, [sp, #20]
                              |RCC_CLOCKTYPE_PCLK1|RCC_CLOCKTYPE_PCLK2;
  RCC_ClkInitStruct.SYSCLKSource = RCC_SYSCLKSOURCE_PLLCLK;
 800082c:	2102      	movs	r1, #2
 800082e:	9106      	str	r1, [sp, #24]
  RCC_ClkInitStruct.AHBCLKDivider = RCC_SYSCLK_DIV1;
 8000830:	2300      	movs	r3, #0
 8000832:	9307      	str	r3, [sp, #28]
  RCC_ClkInitStruct.APB1CLKDivider = RCC_HCLK_DIV2;
 8000834:	f44f 6280 	mov.w	r2, #1024	; 0x400
 8000838:	9208      	str	r2, [sp, #32]
  RCC_ClkInitStruct.APB2CLKDivider = RCC_HCLK_DIV1;
 800083a:	9309      	str	r3, [sp, #36]	; 0x24

  if (HAL_RCC_ClockConfig(&RCC_ClkInitStruct, FLASH_LATENCY_2) != HAL_OK)
 800083c:	a805      	add	r0, sp, #20
 800083e:	f001 fb69 	bl	8001f14 <HAL_RCC_ClockConfig>
 8000842:	b968      	cbnz	r0, 8000860 <SystemClock_Config+0x7c>
  {
    Error_Handler();
  }
  PeriphClkInit.PeriphClockSelection = RCC_PERIPHCLK_ADC;
 8000844:	2302      	movs	r3, #2
 8000846:	9301      	str	r3, [sp, #4]
  PeriphClkInit.AdcClockSelection = RCC_ADCPCLK2_DIV6;
 8000848:	f44f 4300 	mov.w	r3, #32768	; 0x8000
 800084c:	9303      	str	r3, [sp, #12]
  if (HAL_RCCEx_PeriphCLKConfig(&PeriphClkInit) != HAL_OK)
 800084e:	a801      	add	r0, sp, #4
 8000850:	f001 fc38 	bl	80020c4 <HAL_RCCEx_PeriphCLKConfig>
 8000854:	b930      	cbnz	r0, 8000864 <SystemClock_Config+0x80>
  {
    Error_Handler();
  }
}
 8000856:	b015      	add	sp, #84	; 0x54
 8000858:	f85d fb04 	ldr.w	pc, [sp], #4
  __ASM volatile ("cpsid i" : : : "memory");
 800085c:	b672      	cpsid	i
void Error_Handler(void)
{
  /* USER CODE BEGIN Error_Handler_Debug */
  /* User can add his own implementation to report the HAL error return state */
  __disable_irq();
  while (1)
 800085e:	e7fe      	b.n	800085e <SystemClock_Config+0x7a>
 8000860:	b672      	cpsid	i
 8000862:	e7fe      	b.n	8000862 <SystemClock_Config+0x7e>
 8000864:	b672      	cpsid	i
 8000866:	e7fe      	b.n	8000866 <SystemClock_Config+0x82>

08000868 <main>:
{
 8000868:	e92d 43f0 	stmdb	sp!, {r4, r5, r6, r7, r8, r9, lr}
 800086c:	b0a3      	sub	sp, #140	; 0x8c
  HAL_Init();
 800086e:	f000 fcb9 	bl	80011e4 <HAL_Init>
  SystemClock_Config();
 8000872:	f7ff ffb7 	bl	80007e4 <SystemClock_Config>
  GPIO_InitTypeDef GPIO_InitStruct = {0};
 8000876:	2400      	movs	r4, #0
 8000878:	940d      	str	r4, [sp, #52]	; 0x34
 800087a:	940e      	str	r4, [sp, #56]	; 0x38
 800087c:	940f      	str	r4, [sp, #60]	; 0x3c
 800087e:	9410      	str	r4, [sp, #64]	; 0x40
  __HAL_RCC_GPIOC_CLK_ENABLE();
 8000880:	4ba9      	ldr	r3, [pc, #676]	; (8000b28 <main+0x2c0>)
 8000882:	699a      	ldr	r2, [r3, #24]
 8000884:	f042 0210 	orr.w	r2, r2, #16
 8000888:	619a      	str	r2, [r3, #24]
 800088a:	699a      	ldr	r2, [r3, #24]
 800088c:	f002 0210 	and.w	r2, r2, #16
 8000890:	9203      	str	r2, [sp, #12]
 8000892:	9a03      	ldr	r2, [sp, #12]
  __HAL_RCC_GPIOD_CLK_ENABLE();
 8000894:	699a      	ldr	r2, [r3, #24]
 8000896:	f042 0220 	orr.w	r2, r2, #32
 800089a:	619a      	str	r2, [r3, #24]
 800089c:	699a      	ldr	r2, [r3, #24]
 800089e:	f002 0220 	and.w	r2, r2, #32
 80008a2:	9204      	str	r2, [sp, #16]
 80008a4:	9a04      	ldr	r2, [sp, #16]
  __HAL_RCC_GPIOA_CLK_ENABLE();
 80008a6:	699a      	ldr	r2, [r3, #24]
 80008a8:	f042 0204 	orr.w	r2, r2, #4
 80008ac:	619a      	str	r2, [r3, #24]
 80008ae:	699a      	ldr	r2, [r3, #24]
 80008b0:	f002 0204 	and.w	r2, r2, #4
 80008b4:	9205      	str	r2, [sp, #20]
 80008b6:	9a05      	ldr	r2, [sp, #20]
  __HAL_RCC_GPIOB_CLK_ENABLE();
 80008b8:	699a      	ldr	r2, [r3, #24]
 80008ba:	f042 0208 	orr.w	r2, r2, #8
 80008be:	619a      	str	r2, [r3, #24]
 80008c0:	699b      	ldr	r3, [r3, #24]
 80008c2:	f003 0308 	and.w	r3, r3, #8
 80008c6:	9306      	str	r3, [sp, #24]
 80008c8:	9b06      	ldr	r3, [sp, #24]
  HAL_GPIO_WritePin(GPIOC, MUL_S0_Pin|MUL_S1_Pin|MUL_S2_Pin, GPIO_PIN_RESET);
 80008ca:	f8df 9260 	ldr.w	r9, [pc, #608]	; 8000b2c <main+0x2c4>
 80008ce:	4622      	mov	r2, r4
 80008d0:	f44f 4160 	mov.w	r1, #57344	; 0xe000
 80008d4:	4648      	mov	r0, r9
 80008d6:	f001 f8d1 	bl	8001a7c <HAL_GPIO_WritePin>
  HAL_GPIO_WritePin(BATT3S2_ON_GPIO_Port, BATT3S2_ON_Pin, GPIO_PIN_RESET);
 80008da:	f8df 8254 	ldr.w	r8, [pc, #596]	; 8000b30 <main+0x2c8>
 80008de:	4622      	mov	r2, r4
 80008e0:	2102      	movs	r1, #2
 80008e2:	4640      	mov	r0, r8
 80008e4:	f001 f8ca 	bl	8001a7c <HAL_GPIO_WritePin>
  HAL_GPIO_WritePin(GPIOA, SDC_CS_Pin|BMP_CS_Pin|NPYRO_TEST_Pin, GPIO_PIN_SET);
 80008e8:	2201      	movs	r2, #1
 80008ea:	f248 1110 	movw	r1, #33040	; 0x8110
 80008ee:	4640      	mov	r0, r8
 80008f0:	f001 f8c4 	bl	8001a7c <HAL_GPIO_WritePin>
  HAL_GPIO_WritePin(GPIOB, CAM_ON_Pin|PYRO_ON0_Pin|PYRO_ON1_Pin, GPIO_PIN_RESET);
 80008f4:	4e8f      	ldr	r6, [pc, #572]	; (8000b34 <main+0x2cc>)
 80008f6:	4622      	mov	r2, r4
 80008f8:	2131      	movs	r1, #49	; 0x31
 80008fa:	4630      	mov	r0, r6
 80008fc:	f001 f8be 	bl	8001a7c <HAL_GPIO_WritePin>
  HAL_GPIO_WritePin(GPIOB, LED_STATUS_Pin|ICM_CS_Pin|NMUL_E_Pin, GPIO_PIN_SET);
 8000900:	2201      	movs	r2, #1
 8000902:	f241 1104 	movw	r1, #4356	; 0x1104
 8000906:	4630      	mov	r0, r6
 8000908:	f001 f8b8 	bl	8001a7c <HAL_GPIO_WritePin>
  GPIO_InitStruct.Pin = MUL_S0_Pin|MUL_S1_Pin|MUL_S2_Pin;
 800090c:	f44f 4360 	mov.w	r3, #57344	; 0xe000
 8000910:	930d      	str	r3, [sp, #52]	; 0x34
  GPIO_InitStruct.Mode = GPIO_MODE_OUTPUT_PP;
 8000912:	2701      	movs	r7, #1
 8000914:	970e      	str	r7, [sp, #56]	; 0x38
  GPIO_InitStruct.Pull = GPIO_PULLDOWN;
 8000916:	2502      	movs	r5, #2
 8000918:	950f      	str	r5, [sp, #60]	; 0x3c
  GPIO_InitStruct.Speed = GPIO_SPEED_FREQ_LOW;
 800091a:	9510      	str	r5, [sp, #64]	; 0x40
  HAL_GPIO_Init(GPIOC, &GPIO_InitStruct);
 800091c:	a90d      	add	r1, sp, #52	; 0x34
 800091e:	4648      	mov	r0, r9
 8000920:	f000 ff72 	bl	8001808 <HAL_GPIO_Init>
  GPIO_InitStruct.Pin = BATT3S2_ON_Pin|SDC_CS_Pin|BMP_CS_Pin|NPYRO_TEST_Pin;
 8000924:	f248 1312 	movw	r3, #33042	; 0x8112
 8000928:	930d      	str	r3, [sp, #52]	; 0x34
  GPIO_InitStruct.Mode = GPIO_MODE_OUTPUT_PP;
 800092a:	970e      	str	r7, [sp, #56]	; 0x38
  GPIO_InitStruct.Pull = GPIO_NOPULL;
 800092c:	940f      	str	r4, [sp, #60]	; 0x3c
  GPIO_InitStruct.Speed = GPIO_SPEED_FREQ_LOW;
 800092e:	9510      	str	r5, [sp, #64]	; 0x40
  HAL_GPIO_Init(GPIOA, &GPIO_InitStruct);
 8000930:	a90d      	add	r1, sp, #52	; 0x34
 8000932:	4640      	mov	r0, r8
 8000934:	f000 ff68 	bl	8001808 <HAL_GPIO_Init>
  GPIO_InitStruct.Pin = CAM_ON_Pin|LED_STATUS_Pin|ICM_CS_Pin|PYRO_ON0_Pin
 8000938:	f241 0335 	movw	r3, #4149	; 0x1035
 800093c:	930d      	str	r3, [sp, #52]	; 0x34
  GPIO_InitStruct.Mode = GPIO_MODE_OUTPUT_PP;
 800093e:	970e      	str	r7, [sp, #56]	; 0x38
  GPIO_InitStruct.Pull = GPIO_NOPULL;
 8000940:	940f      	str	r4, [sp, #60]	; 0x3c
  GPIO_InitStruct.Speed = GPIO_SPEED_FREQ_LOW;
 8000942:	9510      	str	r5, [sp, #64]	; 0x40
  HAL_GPIO_Init(GPIOB, &GPIO_InitStruct);
 8000944:	a90d      	add	r1, sp, #52	; 0x34
 8000946:	4630      	mov	r0, r6
 8000948:	f000 ff5e 	bl	8001808 <HAL_GPIO_Init>
  GPIO_InitStruct.Pin = BUTTON_IN_Pin|ICM_INT_Pin;
 800094c:	f44f 63c0 	mov.w	r3, #1536	; 0x600
 8000950:	930d      	str	r3, [sp, #52]	; 0x34
  GPIO_InitStruct.Mode = GPIO_MODE_INPUT;
 8000952:	940e      	str	r4, [sp, #56]	; 0x38
  GPIO_InitStruct.Pull = GPIO_NOPULL;
 8000954:	940f      	str	r4, [sp, #60]	; 0x3c
  HAL_GPIO_Init(GPIOA, &GPIO_InitStruct);
 8000956:	a90d      	add	r1, sp, #52	; 0x34
 8000958:	4640      	mov	r0, r8
 800095a:	f000 ff55 	bl	8001808 <HAL_GPIO_Init>
  GPIO_InitStruct.Pin = NMUL_E_Pin;
 800095e:	f44f 7380 	mov.w	r3, #256	; 0x100
 8000962:	930d      	str	r3, [sp, #52]	; 0x34
  GPIO_InitStruct.Mode = GPIO_MODE_OUTPUT_PP;
 8000964:	970e      	str	r7, [sp, #56]	; 0x38
  GPIO_InitStruct.Pull = GPIO_PULLDOWN;
 8000966:	950f      	str	r5, [sp, #60]	; 0x3c
  GPIO_InitStruct.Speed = GPIO_SPEED_FREQ_LOW;
 8000968:	9510      	str	r5, [sp, #64]	; 0x40
  HAL_GPIO_Init(NMUL_E_GPIO_Port, &GPIO_InitStruct);
 800096a:	a90d      	add	r1, sp, #52	; 0x34
 800096c:	4630      	mov	r0, r6
 800096e:	f000 ff4b 	bl	8001808 <HAL_GPIO_Init>
  GPIO_InitStruct.Pin = CHECK12V_Pin;
 8000972:	f44f 7500 	mov.w	r5, #512	; 0x200
 8000976:	950d      	str	r5, [sp, #52]	; 0x34
  GPIO_InitStruct.Mode = GPIO_MODE_INPUT;
 8000978:	940e      	str	r4, [sp, #56]	; 0x38
  GPIO_InitStruct.Pull = GPIO_NOPULL;
 800097a:	940f      	str	r4, [sp, #60]	; 0x3c
  HAL_GPIO_Init(CHECK12V_GPIO_Port, &GPIO_InitStruct);
 800097c:	a90d      	add	r1, sp, #52	; 0x34
 800097e:	4630      	mov	r0, r6
 8000980:	f000 ff42 	bl	8001808 <HAL_GPIO_Init>
  hspi1.Instance = SPI1;
 8000984:	486c      	ldr	r0, [pc, #432]	; (8000b38 <main+0x2d0>)
 8000986:	4b6d      	ldr	r3, [pc, #436]	; (8000b3c <main+0x2d4>)
 8000988:	6003      	str	r3, [r0, #0]
  hspi1.Init.Mode = SPI_MODE_MASTER;
 800098a:	f44f 7382 	mov.w	r3, #260	; 0x104
 800098e:	6043      	str	r3, [r0, #4]
  hspi1.Init.Direction = SPI_DIRECTION_2LINES;
 8000990:	6084      	str	r4, [r0, #8]
  hspi1.Init.DataSize = SPI_DATASIZE_8BIT;
 8000992:	60c4      	str	r4, [r0, #12]
  hspi1.Init.CLKPolarity = SPI_POLARITY_LOW;
 8000994:	6104      	str	r4, [r0, #16]
  hspi1.Init.CLKPhase = SPI_PHASE_1EDGE;
 8000996:	6144      	str	r4, [r0, #20]
  hspi1.Init.NSS = SPI_NSS_SOFT;
 8000998:	6185      	str	r5, [r0, #24]
  hspi1.Init.BaudRatePrescaler = SPI_BAUDRATEPRESCALER_32;
 800099a:	2320      	movs	r3, #32
 800099c:	61c3      	str	r3, [r0, #28]
  hspi1.Init.FirstBit = SPI_FIRSTBIT_MSB;
 800099e:	6204      	str	r4, [r0, #32]
  hspi1.Init.TIMode = SPI_TIMODE_DISABLE;
 80009a0:	6244      	str	r4, [r0, #36]	; 0x24
  hspi1.Init.CRCCalculation = SPI_CRCCALCULATION_DISABLE;
 80009a2:	6284      	str	r4, [r0, #40]	; 0x28
  hspi1.Init.CRCPolynomial = 10;
 80009a4:	230a      	movs	r3, #10
 80009a6:	62c3      	str	r3, [r0, #44]	; 0x2c
  if (HAL_SPI_Init(&hspi1) != HAL_OK)
 80009a8:	f001 fcd1 	bl	800234e <HAL_SPI_Init>
 80009ac:	2800      	cmp	r0, #0
 80009ae:	f040 8133 	bne.w	8000c18 <main+0x3b0>
  hspi2.Instance = SPI2;
 80009b2:	4863      	ldr	r0, [pc, #396]	; (8000b40 <main+0x2d8>)
 80009b4:	4b63      	ldr	r3, [pc, #396]	; (8000b44 <main+0x2dc>)
 80009b6:	6003      	str	r3, [r0, #0]
  hspi2.Init.Mode = SPI_MODE_MASTER;
 80009b8:	f44f 7382 	mov.w	r3, #260	; 0x104
 80009bc:	6043      	str	r3, [r0, #4]
  hspi2.Init.Direction = SPI_DIRECTION_2LINES;
 80009be:	2300      	movs	r3, #0
 80009c0:	6083      	str	r3, [r0, #8]
  hspi2.Init.DataSize = SPI_DATASIZE_8BIT;
 80009c2:	60c3      	str	r3, [r0, #12]
  hspi2.Init.CLKPolarity = SPI_POLARITY_LOW;
 80009c4:	6103      	str	r3, [r0, #16]
  hspi2.Init.CLKPhase = SPI_PHASE_1EDGE;
 80009c6:	6143      	str	r3, [r0, #20]
  hspi2.Init.NSS = SPI_NSS_SOFT;
 80009c8:	f44f 7200 	mov.w	r2, #512	; 0x200
 80009cc:	6182      	str	r2, [r0, #24]
  hspi2.Init.BaudRatePrescaler = SPI_BAUDRATEPRESCALER_16;
 80009ce:	2218      	movs	r2, #24
 80009d0:	61c2      	str	r2, [r0, #28]
  hspi2.Init.FirstBit = SPI_FIRSTBIT_MSB;
 80009d2:	6203      	str	r3, [r0, #32]
  hspi2.Init.TIMode = SPI_TIMODE_DISABLE;
 80009d4:	6243      	str	r3, [r0, #36]	; 0x24
  hspi2.Init.CRCCalculation = SPI_CRCCALCULATION_DISABLE;
 80009d6:	6283      	str	r3, [r0, #40]	; 0x28
  hspi2.Init.CRCPolynomial = 10;
 80009d8:	230a      	movs	r3, #10
 80009da:	62c3      	str	r3, [r0, #44]	; 0x2c
  if (HAL_SPI_Init(&hspi2) != HAL_OK)
 80009dc:	f001 fcb7 	bl	800234e <HAL_SPI_Init>
 80009e0:	2800      	cmp	r0, #0
 80009e2:	f040 811b 	bne.w	8000c1c <main+0x3b4>
  huart1.Instance = USART1;
 80009e6:	4858      	ldr	r0, [pc, #352]	; (8000b48 <main+0x2e0>)
 80009e8:	4b58      	ldr	r3, [pc, #352]	; (8000b4c <main+0x2e4>)
 80009ea:	6003      	str	r3, [r0, #0]
  huart1.Init.BaudRate = 115200;
 80009ec:	f44f 33e1 	mov.w	r3, #115200	; 0x1c200
 80009f0:	6043      	str	r3, [r0, #4]
  huart1.Init.WordLength = UART_WORDLENGTH_8B;
 80009f2:	2300      	movs	r3, #0
 80009f4:	6083      	str	r3, [r0, #8]
  huart1.Init.StopBits = UART_STOPBITS_1;
 80009f6:	60c3      	str	r3, [r0, #12]
  huart1.Init.Parity = UART_PARITY_NONE;
 80009f8:	6103      	str	r3, [r0, #16]
  huart1.Init.Mode = UART_MODE_TX_RX;
 80009fa:	220c      	movs	r2, #12
 80009fc:	6142      	str	r2, [r0, #20]
  huart1.Init.HwFlowCtl = UART_HWCONTROL_NONE;
 80009fe:	6183      	str	r3, [r0, #24]
  huart1.Init.OverSampling = UART_OVERSAMPLING_16;
 8000a00:	61c3      	str	r3, [r0, #28]
  if (HAL_UART_Init(&huart1) != HAL_OK)
 8000a02:	f002 fac7 	bl	8002f94 <HAL_UART_Init>
 8000a06:	2800      	cmp	r0, #0
 8000a08:	f040 810a 	bne.w	8000c20 <main+0x3b8>
  huart2.Instance = USART2;
 8000a0c:	4850      	ldr	r0, [pc, #320]	; (8000b50 <main+0x2e8>)
 8000a0e:	4b51      	ldr	r3, [pc, #324]	; (8000b54 <main+0x2ec>)
 8000a10:	6003      	str	r3, [r0, #0]
  huart2.Init.BaudRate = 9600;
 8000a12:	f44f 5316 	mov.w	r3, #9600	; 0x2580
 8000a16:	6043      	str	r3, [r0, #4]
  huart2.Init.WordLength = UART_WORDLENGTH_8B;
 8000a18:	2300      	movs	r3, #0
 8000a1a:	6083      	str	r3, [r0, #8]
  huart2.Init.StopBits = UART_STOPBITS_1;
 8000a1c:	60c3      	str	r3, [r0, #12]
  huart2.Init.Parity = UART_PARITY_NONE;
 8000a1e:	6103      	str	r3, [r0, #16]
  huart2.Init.Mode = UART_MODE_TX_RX;
 8000a20:	220c      	movs	r2, #12
 8000a22:	6142      	str	r2, [r0, #20]
  huart2.Init.HwFlowCtl = UART_HWCONTROL_NONE;
 8000a24:	6183      	str	r3, [r0, #24]
  huart2.Init.OverSampling = UART_OVERSAMPLING_16;
 8000a26:	61c3      	str	r3, [r0, #28]
  if (HAL_UART_Init(&huart2) != HAL_OK)
 8000a28:	f002 fab4 	bl	8002f94 <HAL_UART_Init>
 8000a2c:	2800      	cmp	r0, #0
 8000a2e:	f040 80f9 	bne.w	8000c24 <main+0x3bc>
  huart3.Instance = USART3;
 8000a32:	4849      	ldr	r0, [pc, #292]	; (8000b58 <main+0x2f0>)
 8000a34:	4b49      	ldr	r3, [pc, #292]	; (8000b5c <main+0x2f4>)
 8000a36:	6003      	str	r3, [r0, #0]
  huart3.Init.BaudRate = 115200;
 8000a38:	f44f 33e1 	mov.w	r3, #115200	; 0x1c200
 8000a3c:	6043      	str	r3, [r0, #4]
  huart3.Init.WordLength = UART_WORDLENGTH_8B;
 8000a3e:	2300      	movs	r3, #0
 8000a40:	6083      	str	r3, [r0, #8]
  huart3.Init.StopBits = UART_STOPBITS_1;
 8000a42:	60c3      	str	r3, [r0, #12]
  huart3.Init.Parity = UART_PARITY_NONE;
 8000a44:	6103      	str	r3, [r0, #16]
  huart3.Init.Mode = UART_MODE_TX_RX;
 8000a46:	220c      	movs	r2, #12
 8000a48:	6142      	str	r2, [r0, #20]
  huart3.Init.HwFlowCtl = UART_HWCONTROL_NONE;
 8000a4a:	6183      	str	r3, [r0, #24]
  huart3.Init.OverSampling = UART_OVERSAMPLING_16;
 8000a4c:	61c3      	str	r3, [r0, #28]
  if (HAL_UART_Init(&huart3) != HAL_OK)
 8000a4e:	f002 faa1 	bl	8002f94 <HAL_UART_Init>
 8000a52:	2800      	cmp	r0, #0
 8000a54:	f040 80e8 	bne.w	8000c28 <main+0x3c0>
  TIM_ClockConfigTypeDef sClockSourceConfig = {0};
 8000a58:	2300      	movs	r3, #0
 8000a5a:	9309      	str	r3, [sp, #36]	; 0x24
 8000a5c:	930a      	str	r3, [sp, #40]	; 0x28
 8000a5e:	930b      	str	r3, [sp, #44]	; 0x2c
 8000a60:	930c      	str	r3, [sp, #48]	; 0x30
  TIM_MasterConfigTypeDef sMasterConfig = {0};
 8000a62:	9307      	str	r3, [sp, #28]
 8000a64:	9308      	str	r3, [sp, #32]
  TIM_OC_InitTypeDef sConfigOC = {0};
 8000a66:	930d      	str	r3, [sp, #52]	; 0x34
 8000a68:	930e      	str	r3, [sp, #56]	; 0x38
 8000a6a:	930f      	str	r3, [sp, #60]	; 0x3c
 8000a6c:	9310      	str	r3, [sp, #64]	; 0x40
 8000a6e:	9311      	str	r3, [sp, #68]	; 0x44
 8000a70:	9312      	str	r3, [sp, #72]	; 0x48
 8000a72:	9313      	str	r3, [sp, #76]	; 0x4c
  htim3.Instance = TIM3;
 8000a74:	483a      	ldr	r0, [pc, #232]	; (8000b60 <main+0x2f8>)
 8000a76:	4a3b      	ldr	r2, [pc, #236]	; (8000b64 <main+0x2fc>)
 8000a78:	6002      	str	r2, [r0, #0]
  htim3.Init.Prescaler = 127;
 8000a7a:	227f      	movs	r2, #127	; 0x7f
 8000a7c:	6042      	str	r2, [r0, #4]
  htim3.Init.CounterMode = TIM_COUNTERMODE_UP;
 8000a7e:	6083      	str	r3, [r0, #8]
  htim3.Init.Period = 20;
 8000a80:	2214      	movs	r2, #20
 8000a82:	60c2      	str	r2, [r0, #12]
  htim3.Init.ClockDivision = TIM_CLOCKDIVISION_DIV1;
 8000a84:	6103      	str	r3, [r0, #16]
  htim3.Init.AutoReloadPreload = TIM_AUTORELOAD_PRELOAD_DISABLE;
 8000a86:	6183      	str	r3, [r0, #24]
  if (HAL_TIM_Base_Init(&htim3) != HAL_OK)
 8000a88:	f002 f854 	bl	8002b34 <HAL_TIM_Base_Init>
 8000a8c:	2800      	cmp	r0, #0
 8000a8e:	f040 80cd 	bne.w	8000c2c <main+0x3c4>
  sClockSourceConfig.ClockSource = TIM_CLOCKSOURCE_INTERNAL;
 8000a92:	f44f 5380 	mov.w	r3, #4096	; 0x1000
 8000a96:	9309      	str	r3, [sp, #36]	; 0x24
  if (HAL_TIM_ConfigClockSource(&htim3, &sClockSourceConfig) != HAL_OK)
 8000a98:	a909      	add	r1, sp, #36	; 0x24
 8000a9a:	4831      	ldr	r0, [pc, #196]	; (8000b60 <main+0x2f8>)
 8000a9c:	f002 f94a 	bl	8002d34 <HAL_TIM_ConfigClockSource>
 8000aa0:	2800      	cmp	r0, #0
 8000aa2:	f040 80c5 	bne.w	8000c30 <main+0x3c8>
  if (HAL_TIM_PWM_Init(&htim3) != HAL_OK)
 8000aa6:	482e      	ldr	r0, [pc, #184]	; (8000b60 <main+0x2f8>)
 8000aa8:	f002 f870 	bl	8002b8c <HAL_TIM_PWM_Init>
 8000aac:	2800      	cmp	r0, #0
 8000aae:	f040 80c1 	bne.w	8000c34 <main+0x3cc>
  sMasterConfig.MasterOutputTrigger = TIM_TRGO_RESET;
 8000ab2:	2300      	movs	r3, #0
 8000ab4:	9307      	str	r3, [sp, #28]
  sMasterConfig.MasterSlaveMode = TIM_MASTERSLAVEMODE_DISABLE;
 8000ab6:	9308      	str	r3, [sp, #32]
  if (HAL_TIMEx_MasterConfigSynchronization(&htim3, &sMasterConfig) != HAL_OK)
 8000ab8:	a907      	add	r1, sp, #28
 8000aba:	4829      	ldr	r0, [pc, #164]	; (8000b60 <main+0x2f8>)
 8000abc:	f002 f9f0 	bl	8002ea0 <HAL_TIMEx_MasterConfigSynchronization>
 8000ac0:	2800      	cmp	r0, #0
 8000ac2:	f040 80b9 	bne.w	8000c38 <main+0x3d0>
  sConfigOC.OCMode = TIM_OCMODE_PWM1;
 8000ac6:	2360      	movs	r3, #96	; 0x60
 8000ac8:	930d      	str	r3, [sp, #52]	; 0x34
  sConfigOC.Pulse = 0;
 8000aca:	2300      	movs	r3, #0
 8000acc:	930e      	str	r3, [sp, #56]	; 0x38
  sConfigOC.OCPolarity = TIM_OCPOLARITY_HIGH;
 8000ace:	930f      	str	r3, [sp, #60]	; 0x3c
  sConfigOC.OCFastMode = TIM_OCFAST_DISABLE;
 8000ad0:	9311      	str	r3, [sp, #68]	; 0x44
  if (HAL_TIM_PWM_ConfigChannel(&htim3, &sConfigOC, TIM_CHANNEL_4) != HAL_OK)
 8000ad2:	220c      	movs	r2, #12
 8000ad4:	a90d      	add	r1, sp, #52	; 0x34
 8000ad6:	4822      	ldr	r0, [pc, #136]	; (8000b60 <main+0x2f8>)
 8000ad8:	f002 f8b2 	bl	8002c40 <HAL_TIM_PWM_ConfigChannel>
 8000adc:	2800      	cmp	r0, #0
 8000ade:	f040 80ad 	bne.w	8000c3c <main+0x3d4>
  HAL_TIM_MspPostInit(&htim3);
 8000ae2:	481f      	ldr	r0, [pc, #124]	; (8000b60 <main+0x2f8>)
 8000ae4:	f000 f9fc 	bl	8000ee0 <HAL_TIM_MspPostInit>
  ADC_ChannelConfTypeDef sConfig = {0};
 8000ae8:	2300      	movs	r3, #0
 8000aea:	930d      	str	r3, [sp, #52]	; 0x34
 8000aec:	930e      	str	r3, [sp, #56]	; 0x38
 8000aee:	930f      	str	r3, [sp, #60]	; 0x3c
  hadc1.Instance = ADC1;
 8000af0:	481d      	ldr	r0, [pc, #116]	; (8000b68 <main+0x300>)
 8000af2:	4a1e      	ldr	r2, [pc, #120]	; (8000b6c <main+0x304>)
 8000af4:	6002      	str	r2, [r0, #0]
  hadc1.Init.ScanConvMode = ADC_SCAN_DISABLE;
 8000af6:	6083      	str	r3, [r0, #8]
  hadc1.Init.ContinuousConvMode = DISABLE;
 8000af8:	7303      	strb	r3, [r0, #12]
  hadc1.Init.DiscontinuousConvMode = DISABLE;
 8000afa:	7503      	strb	r3, [r0, #20]
  hadc1.Init.ExternalTrigConv = ADC_SOFTWARE_START;
 8000afc:	f44f 2260 	mov.w	r2, #917504	; 0xe0000
 8000b00:	61c2      	str	r2, [r0, #28]
  hadc1.Init.DataAlign = ADC_DATAALIGN_RIGHT;
 8000b02:	6043      	str	r3, [r0, #4]
  hadc1.Init.NbrOfConversion = 1;
 8000b04:	2301      	movs	r3, #1
 8000b06:	6103      	str	r3, [r0, #16]
  if (HAL_ADC_Init(&hadc1) != HAL_OK)
 8000b08:	f000 fc7a 	bl	8001400 <HAL_ADC_Init>
 8000b0c:	2800      	cmp	r0, #0
 8000b0e:	f040 8097 	bne.w	8000c40 <main+0x3d8>
  sConfig.Channel = ADC_CHANNEL_0;
 8000b12:	2300      	movs	r3, #0
 8000b14:	930d      	str	r3, [sp, #52]	; 0x34
  sConfig.Rank = ADC_REGULAR_RANK_1;
 8000b16:	2201      	movs	r2, #1
 8000b18:	920e      	str	r2, [sp, #56]	; 0x38
  sConfig.SamplingTime = ADC_SAMPLETIME_1CYCLE_5;
 8000b1a:	930f      	str	r3, [sp, #60]	; 0x3c
  if (HAL_ADC_ConfigChannel(&hadc1, &sConfig) != HAL_OK)
 8000b1c:	a90d      	add	r1, sp, #52	; 0x34
 8000b1e:	4812      	ldr	r0, [pc, #72]	; (8000b68 <main+0x300>)
 8000b20:	f000 fb98 	bl	8001254 <HAL_ADC_ConfigChannel>
 8000b24:	e024      	b.n	8000b70 <main+0x308>
 8000b26:	bf00      	nop
 8000b28:	40021000 	.word	0x40021000
 8000b2c:	40011000 	.word	0x40011000
 8000b30:	40010800 	.word	0x40010800
 8000b34:	40010c00 	.word	0x40010c00
 8000b38:	20000280 	.word	0x20000280
 8000b3c:	40013000 	.word	0x40013000
 8000b40:	200002d8 	.word	0x200002d8
 8000b44:	40003800 	.word	0x40003800
 8000b48:	20000378 	.word	0x20000378
 8000b4c:	40013800 	.word	0x40013800
 8000b50:	200003c0 	.word	0x200003c0
 8000b54:	40004400 	.word	0x40004400
 8000b58:	20000408 	.word	0x20000408
 8000b5c:	40004800 	.word	0x40004800
 8000b60:	20000330 	.word	0x20000330
 8000b64:	40000400 	.word	0x40000400
 8000b68:	20000204 	.word	0x20000204
 8000b6c:	40012400 	.word	0x40012400
 8000b70:	2800      	cmp	r0, #0
 8000b72:	d167      	bne.n	8000c44 <main+0x3dc>
  hcrc.Instance = CRC;
 8000b74:	4839      	ldr	r0, [pc, #228]	; (8000c5c <main+0x3f4>)
 8000b76:	4b3a      	ldr	r3, [pc, #232]	; (8000c60 <main+0x3f8>)
 8000b78:	6003      	str	r3, [r0, #0]
  if (HAL_CRC_Init(&hcrc) != HAL_OK)
 8000b7a:	f000 fd21 	bl	80015c0 <HAL_CRC_Init>
 8000b7e:	2800      	cmp	r0, #0
 8000b80:	d162      	bne.n	8000c48 <main+0x3e0>
  printf(" Starting \n");
 8000b82:	4838      	ldr	r0, [pc, #224]	; (8000c64 <main+0x3fc>)
 8000b84:	f002 fb5e 	bl	8003244 <puts>
  status = ICM20602_Init(&icm, &hspi2, ICM_CS_Pin, ICM_CS_GPIO_Port);
 8000b88:	4b37      	ldr	r3, [pc, #220]	; (8000c68 <main+0x400>)
 8000b8a:	f44f 5280 	mov.w	r2, #4096	; 0x1000
 8000b8e:	4937      	ldr	r1, [pc, #220]	; (8000c6c <main+0x404>)
 8000b90:	a814      	add	r0, sp, #80	; 0x50
 8000b92:	f7ff fbe7 	bl	8000364 <ICM20602_Init>
  if(status == 0){printf("ICM20602 DETECT!\n");}
 8000b96:	4601      	mov	r1, r0
 8000b98:	2800      	cmp	r0, #0
 8000b9a:	d157      	bne.n	8000c4c <main+0x3e4>
 8000b9c:	4834      	ldr	r0, [pc, #208]	; (8000c70 <main+0x408>)
 8000b9e:	f002 fb51 	bl	8003244 <puts>
  status = BMP280_Init(&bmp, &hspi2, BMP_CS_Pin, BMP_CS_GPIO_Port);
 8000ba2:	4b34      	ldr	r3, [pc, #208]	; (8000c74 <main+0x40c>)
 8000ba4:	f44f 7280 	mov.w	r2, #256	; 0x100
 8000ba8:	4930      	ldr	r1, [pc, #192]	; (8000c6c <main+0x404>)
 8000baa:	a81d      	add	r0, sp, #116	; 0x74
 8000bac:	f7ff fb1a 	bl	80001e4 <BMP280_Init>
  if(status == 0){printf("BMP280 DETECT!\n");}
 8000bb0:	4601      	mov	r1, r0
 8000bb2:	2800      	cmp	r0, #0
 8000bb4:	d14e      	bne.n	8000c54 <main+0x3ec>
 8000bb6:	4830      	ldr	r0, [pc, #192]	; (8000c78 <main+0x410>)
 8000bb8:	f002 fb44 	bl	8003244 <puts>
  __ASM volatile ("cpsie i" : : : "memory");
 8000bbc:	b662      	cpsie	i
	      HAL_Delay(200);
 8000bbe:	20c8      	movs	r0, #200	; 0xc8
 8000bc0:	f000 fb34 	bl	800122c <HAL_Delay>
	      led_channels[0].framebuffer = channel_framebuffers;
 8000bc4:	4b2d      	ldr	r3, [pc, #180]	; (8000c7c <main+0x414>)
 8000bc6:	930d      	str	r3, [sp, #52]	; 0x34
	      led_channels[0].length = FRAMEBUFFER_SIZE * sizeof(struct pixel);
 8000bc8:	2348      	movs	r3, #72	; 0x48
 8000bca:	930e      	str	r3, [sp, #56]	; 0x38
	      WS2812_Init();
 8000bcc:	f7ff fd60 	bl	8000690 <WS2812_Init>
	    	  WS2812_Solid_Colors(channel_framebuffers[0], led_channels, 0, 255, 0);
 8000bd0:	4f2a      	ldr	r7, [pc, #168]	; (8000c7c <main+0x414>)
 8000bd2:	26ff      	movs	r6, #255	; 0xff
	          HAL_Delay(500);
 8000bd4:	f44f 75fa 	mov.w	r5, #500	; 0x1f4
	    	  WS2812_Solid_Colors(channel_framebuffers[0], led_channels, 0, 255, 0);
 8000bd8:	2400      	movs	r4, #0
 8000bda:	9400      	str	r4, [sp, #0]
 8000bdc:	4633      	mov	r3, r6
 8000bde:	4622      	mov	r2, r4
 8000be0:	a90d      	add	r1, sp, #52	; 0x34
 8000be2:	4638      	mov	r0, r7
 8000be4:	f7ff fdb6 	bl	8000754 <WS2812_Solid_Colors>
	          HAL_Delay(500);
 8000be8:	4628      	mov	r0, r5
 8000bea:	f000 fb1f 	bl	800122c <HAL_Delay>
	          WS2812_Solid_Colors(channel_framebuffers[0], led_channels, 255, 0, 0);
 8000bee:	9400      	str	r4, [sp, #0]
 8000bf0:	4623      	mov	r3, r4
 8000bf2:	4632      	mov	r2, r6
 8000bf4:	a90d      	add	r1, sp, #52	; 0x34
 8000bf6:	4638      	mov	r0, r7
 8000bf8:	f7ff fdac 	bl	8000754 <WS2812_Solid_Colors>
	          HAL_Delay(500);
 8000bfc:	4628      	mov	r0, r5
 8000bfe:	f000 fb15 	bl	800122c <HAL_Delay>
	          WS2812_Solid_Colors(channel_framebuffers[0], led_channels, 0, 0, 255);
 8000c02:	9600      	str	r6, [sp, #0]
 8000c04:	4623      	mov	r3, r4
 8000c06:	4622      	mov	r2, r4
 8000c08:	a90d      	add	r1, sp, #52	; 0x34
 8000c0a:	4638      	mov	r0, r7
 8000c0c:	f7ff fda2 	bl	8000754 <WS2812_Solid_Colors>
	          HAL_Delay(500);
 8000c10:	4628      	mov	r0, r5
 8000c12:	f000 fb0b 	bl	800122c <HAL_Delay>
	      while(1)
 8000c16:	e7df      	b.n	8000bd8 <main+0x370>
  __ASM volatile ("cpsid i" : : : "memory");
 8000c18:	b672      	cpsid	i
  while (1)
 8000c1a:	e7fe      	b.n	8000c1a <main+0x3b2>
 8000c1c:	b672      	cpsid	i
 8000c1e:	e7fe      	b.n	8000c1e <main+0x3b6>
 8000c20:	b672      	cpsid	i
 8000c22:	e7fe      	b.n	8000c22 <main+0x3ba>
 8000c24:	b672      	cpsid	i
 8000c26:	e7fe      	b.n	8000c26 <main+0x3be>
 8000c28:	b672      	cpsid	i
 8000c2a:	e7fe      	b.n	8000c2a <main+0x3c2>
 8000c2c:	b672      	cpsid	i
 8000c2e:	e7fe      	b.n	8000c2e <main+0x3c6>
 8000c30:	b672      	cpsid	i
 8000c32:	e7fe      	b.n	8000c32 <main+0x3ca>
 8000c34:	b672      	cpsid	i
 8000c36:	e7fe      	b.n	8000c36 <main+0x3ce>
 8000c38:	b672      	cpsid	i
 8000c3a:	e7fe      	b.n	8000c3a <main+0x3d2>
 8000c3c:	b672      	cpsid	i
 8000c3e:	e7fe      	b.n	8000c3e <main+0x3d6>
 8000c40:	b672      	cpsid	i
 8000c42:	e7fe      	b.n	8000c42 <main+0x3da>
 8000c44:	b672      	cpsid	i
 8000c46:	e7fe      	b.n	8000c46 <main+0x3de>
 8000c48:	b672      	cpsid	i
 8000c4a:	e7fe      	b.n	8000c4a <main+0x3e2>
  else{printf("status = %d \n", status);}
 8000c4c:	480c      	ldr	r0, [pc, #48]	; (8000c80 <main+0x418>)
 8000c4e:	f002 fa93 	bl	8003178 <iprintf>
 8000c52:	e7a6      	b.n	8000ba2 <main+0x33a>
  else {printf("status = %d \n", status);}
 8000c54:	480a      	ldr	r0, [pc, #40]	; (8000c80 <main+0x418>)
 8000c56:	f002 fa8f 	bl	8003178 <iprintf>
 8000c5a:	e7af      	b.n	8000bbc <main+0x354>
 8000c5c:	20000234 	.word	0x20000234
 8000c60:	40023000 	.word	0x40023000
 8000c64:	08003f40 	.word	0x08003f40
 8000c68:	40010c00 	.word	0x40010c00
 8000c6c:	200002d8 	.word	0x200002d8
 8000c70:	08003f4c 	.word	0x08003f4c
 8000c74:	40010800 	.word	0x40010800
 8000c78:	08003f70 	.word	0x08003f70
 8000c7c:	200001bc 	.word	0x200001bc
 8000c80:	08003f60 	.word	0x08003f60

08000c84 <_write>:
	for(DataIdx = 0; DataIdx < len; DataIdx++)
 8000c84:	1e10      	subs	r0, r2, #0
 8000c86:	dd2d      	ble.n	8000ce4 <_write+0x60>
 8000c88:	eb01 0c00 	add.w	ip, r1, r0
  \param [in]     ch  Character to transmit.
  \returns            Character to transmit.
 */
__STATIC_INLINE uint32_t ITM_SendChar (uint32_t ch)
{
  if (((ITM->TCR & ITM_TCR_ITMENA_Msk) != 0UL) &&      /* ITM enabled */
 8000c8c:	f04f 4360 	mov.w	r3, #3758096384	; 0xe0000000
 8000c90:	e003      	b.n	8000c9a <_write+0x16>
}
 8000c92:	f85d fb04 	ldr.w	pc, [sp], #4
	for(DataIdx = 0; DataIdx < len; DataIdx++)
 8000c96:	458c      	cmp	ip, r1
 8000c98:	d023      	beq.n	8000ce2 <_write+0x5e>
		ITM_SendChar(*ptr++);
 8000c9a:	3101      	adds	r1, #1
 8000c9c:	f8d3 2e80 	ldr.w	r2, [r3, #3712]	; 0xe80
 8000ca0:	f012 0f01 	tst.w	r2, #1
 8000ca4:	d0f7      	beq.n	8000c96 <_write+0x12>
      ((ITM->TER & 1UL               ) != 0UL)   )     /* ITM Port #0 enabled */
 8000ca6:	f8d3 2e00 	ldr.w	r2, [r3, #3584]	; 0xe00
  if (((ITM->TCR & ITM_TCR_ITMENA_Msk) != 0UL) &&      /* ITM enabled */
 8000caa:	f012 0f01 	tst.w	r2, #1
 8000cae:	d0f2      	beq.n	8000c96 <_write+0x12>
{
 8000cb0:	b500      	push	{lr}
		ITM_SendChar(*ptr++);
 8000cb2:	f811 ec01 	ldrb.w	lr, [r1, #-1]
  {
    while (ITM->PORT[0U].u32 == 0UL)
 8000cb6:	681a      	ldr	r2, [r3, #0]
 8000cb8:	b91a      	cbnz	r2, 8000cc2 <_write+0x3e>
    {
      __NOP();
 8000cba:	bf00      	nop
    while (ITM->PORT[0U].u32 == 0UL)
 8000cbc:	681a      	ldr	r2, [r3, #0]
 8000cbe:	2a00      	cmp	r2, #0
 8000cc0:	d0fb      	beq.n	8000cba <_write+0x36>
    }
    ITM->PORT[0U].u8 = (uint8_t)ch;
 8000cc2:	f883 e000 	strb.w	lr, [r3]
	for(DataIdx = 0; DataIdx < len; DataIdx++)
 8000cc6:	458c      	cmp	ip, r1
 8000cc8:	d0e3      	beq.n	8000c92 <_write+0xe>
		ITM_SendChar(*ptr++);
 8000cca:	3101      	adds	r1, #1
  if (((ITM->TCR & ITM_TCR_ITMENA_Msk) != 0UL) &&      /* ITM enabled */
 8000ccc:	f8d3 2e80 	ldr.w	r2, [r3, #3712]	; 0xe80
 8000cd0:	f012 0f01 	tst.w	r2, #1
 8000cd4:	d0f7      	beq.n	8000cc6 <_write+0x42>
      ((ITM->TER & 1UL               ) != 0UL)   )     /* ITM Port #0 enabled */
 8000cd6:	f8d3 2e00 	ldr.w	r2, [r3, #3584]	; 0xe00
  if (((ITM->TCR & ITM_TCR_ITMENA_Msk) != 0UL) &&      /* ITM enabled */
 8000cda:	f012 0f01 	tst.w	r2, #1
 8000cde:	d0f2      	beq.n	8000cc6 <_write+0x42>
 8000ce0:	e7e7      	b.n	8000cb2 <_write+0x2e>
 8000ce2:	4770      	bx	lr
}
 8000ce4:	4770      	bx	lr

08000ce6 <Error_Handler>:
 8000ce6:	b672      	cpsid	i
  while (1)
 8000ce8:	e7fe      	b.n	8000ce8 <Error_Handler+0x2>
	...

08000cec <HAL_MspInit>:
 8000cec:	b082      	sub	sp, #8
 8000cee:	4b0e      	ldr	r3, [pc, #56]	; (8000d28 <HAL_MspInit+0x3c>)
 8000cf0:	699a      	ldr	r2, [r3, #24]
 8000cf2:	f042 0201 	orr.w	r2, r2, #1
 8000cf6:	619a      	str	r2, [r3, #24]
 8000cf8:	699a      	ldr	r2, [r3, #24]
 8000cfa:	f002 0201 	and.w	r2, r2, #1
 8000cfe:	9200      	str	r2, [sp, #0]
 8000d00:	9a00      	ldr	r2, [sp, #0]
 8000d02:	69da      	ldr	r2, [r3, #28]
 8000d04:	f042 5280 	orr.w	r2, r2, #268435456	; 0x10000000
 8000d08:	61da      	str	r2, [r3, #28]
 8000d0a:	69db      	ldr	r3, [r3, #28]
 8000d0c:	f003 5380 	and.w	r3, r3, #268435456	; 0x10000000
 8000d10:	9301      	str	r3, [sp, #4]
 8000d12:	9b01      	ldr	r3, [sp, #4]
 8000d14:	4a05      	ldr	r2, [pc, #20]	; (8000d2c <HAL_MspInit+0x40>)
 8000d16:	6853      	ldr	r3, [r2, #4]
 8000d18:	f023 63e0 	bic.w	r3, r3, #117440512	; 0x7000000
 8000d1c:	f043 7300 	orr.w	r3, r3, #33554432	; 0x2000000
 8000d20:	6053      	str	r3, [r2, #4]
 8000d22:	b002      	add	sp, #8
 8000d24:	4770      	bx	lr
 8000d26:	bf00      	nop
 8000d28:	40021000 	.word	0x40021000
 8000d2c:	40010000 	.word	0x40010000

08000d30 <HAL_ADC_MspInit>:
 8000d30:	b500      	push	{lr}
 8000d32:	b087      	sub	sp, #28
 8000d34:	2300      	movs	r3, #0
 8000d36:	9302      	str	r3, [sp, #8]
 8000d38:	9303      	str	r3, [sp, #12]
 8000d3a:	9304      	str	r3, [sp, #16]
 8000d3c:	9305      	str	r3, [sp, #20]
 8000d3e:	6802      	ldr	r2, [r0, #0]
 8000d40:	4b11      	ldr	r3, [pc, #68]	; (8000d88 <HAL_ADC_MspInit+0x58>)
 8000d42:	429a      	cmp	r2, r3
 8000d44:	d002      	beq.n	8000d4c <HAL_ADC_MspInit+0x1c>
 8000d46:	b007      	add	sp, #28
 8000d48:	f85d fb04 	ldr.w	pc, [sp], #4
 8000d4c:	f503 436c 	add.w	r3, r3, #60416	; 0xec00
 8000d50:	699a      	ldr	r2, [r3, #24]
 8000d52:	f442 7200 	orr.w	r2, r2, #512	; 0x200
 8000d56:	619a      	str	r2, [r3, #24]
 8000d58:	699a      	ldr	r2, [r3, #24]
 8000d5a:	f402 7200 	and.w	r2, r2, #512	; 0x200
 8000d5e:	9200      	str	r2, [sp, #0]
 8000d60:	9a00      	ldr	r2, [sp, #0]
 8000d62:	699a      	ldr	r2, [r3, #24]
 8000d64:	f042 0204 	orr.w	r2, r2, #4
 8000d68:	619a      	str	r2, [r3, #24]
 8000d6a:	699b      	ldr	r3, [r3, #24]
 8000d6c:	f003 0304 	and.w	r3, r3, #4
 8000d70:	9301      	str	r3, [sp, #4]
 8000d72:	9b01      	ldr	r3, [sp, #4]
 8000d74:	2301      	movs	r3, #1
 8000d76:	9302      	str	r3, [sp, #8]
 8000d78:	2303      	movs	r3, #3
 8000d7a:	9303      	str	r3, [sp, #12]
 8000d7c:	a902      	add	r1, sp, #8
 8000d7e:	4803      	ldr	r0, [pc, #12]	; (8000d8c <HAL_ADC_MspInit+0x5c>)
 8000d80:	f000 fd42 	bl	8001808 <HAL_GPIO_Init>
 8000d84:	e7df      	b.n	8000d46 <HAL_ADC_MspInit+0x16>
 8000d86:	bf00      	nop
 8000d88:	40012400 	.word	0x40012400
 8000d8c:	40010800 	.word	0x40010800

08000d90 <HAL_CRC_MspInit>:
 8000d90:	6802      	ldr	r2, [r0, #0]
 8000d92:	4b09      	ldr	r3, [pc, #36]	; (8000db8 <HAL_CRC_MspInit+0x28>)
 8000d94:	429a      	cmp	r2, r3
 8000d96:	d000      	beq.n	8000d9a <HAL_CRC_MspInit+0xa>
 8000d98:	4770      	bx	lr
 8000d9a:	b082      	sub	sp, #8
 8000d9c:	f5a3 5300 	sub.w	r3, r3, #8192	; 0x2000
 8000da0:	695a      	ldr	r2, [r3, #20]
 8000da2:	f042 0240 	orr.w	r2, r2, #64	; 0x40
 8000da6:	615a      	str	r2, [r3, #20]
 8000da8:	695b      	ldr	r3, [r3, #20]
 8000daa:	f003 0340 	and.w	r3, r3, #64	; 0x40
 8000dae:	9301      	str	r3, [sp, #4]
 8000db0:	9b01      	ldr	r3, [sp, #4]
 8000db2:	b002      	add	sp, #8
 8000db4:	4770      	bx	lr
 8000db6:	bf00      	nop
 8000db8:	40023000 	.word	0x40023000

08000dbc <HAL_SPI_MspInit>:
 8000dbc:	b510      	push	{r4, lr}
 8000dbe:	b088      	sub	sp, #32
 8000dc0:	2300      	movs	r3, #0
 8000dc2:	9304      	str	r3, [sp, #16]
 8000dc4:	9305      	str	r3, [sp, #20]
 8000dc6:	9306      	str	r3, [sp, #24]
 8000dc8:	9307      	str	r3, [sp, #28]
 8000dca:	6803      	ldr	r3, [r0, #0]
 8000dcc:	4a2c      	ldr	r2, [pc, #176]	; (8000e80 <HAL_SPI_MspInit+0xc4>)
 8000dce:	4293      	cmp	r3, r2
 8000dd0:	d004      	beq.n	8000ddc <HAL_SPI_MspInit+0x20>
 8000dd2:	4a2c      	ldr	r2, [pc, #176]	; (8000e84 <HAL_SPI_MspInit+0xc8>)
 8000dd4:	4293      	cmp	r3, r2
 8000dd6:	d029      	beq.n	8000e2c <HAL_SPI_MspInit+0x70>
 8000dd8:	b008      	add	sp, #32
 8000dda:	bd10      	pop	{r4, pc}
 8000ddc:	4b2a      	ldr	r3, [pc, #168]	; (8000e88 <HAL_SPI_MspInit+0xcc>)
 8000dde:	699a      	ldr	r2, [r3, #24]
 8000de0:	f442 5280 	orr.w	r2, r2, #4096	; 0x1000
 8000de4:	619a      	str	r2, [r3, #24]
 8000de6:	699a      	ldr	r2, [r3, #24]
 8000de8:	f402 5280 	and.w	r2, r2, #4096	; 0x1000
 8000dec:	9200      	str	r2, [sp, #0]
 8000dee:	9a00      	ldr	r2, [sp, #0]
 8000df0:	699a      	ldr	r2, [r3, #24]
 8000df2:	f042 0204 	orr.w	r2, r2, #4
 8000df6:	619a      	str	r2, [r3, #24]
 8000df8:	699b      	ldr	r3, [r3, #24]
 8000dfa:	f003 0304 	and.w	r3, r3, #4
 8000dfe:	9301      	str	r3, [sp, #4]
 8000e00:	9b01      	ldr	r3, [sp, #4]
 8000e02:	23a0      	movs	r3, #160	; 0xa0
 8000e04:	9304      	str	r3, [sp, #16]
 8000e06:	2302      	movs	r3, #2
 8000e08:	9305      	str	r3, [sp, #20]
 8000e0a:	2303      	movs	r3, #3
 8000e0c:	9307      	str	r3, [sp, #28]
 8000e0e:	4c1f      	ldr	r4, [pc, #124]	; (8000e8c <HAL_SPI_MspInit+0xd0>)
 8000e10:	a904      	add	r1, sp, #16
 8000e12:	4620      	mov	r0, r4
 8000e14:	f000 fcf8 	bl	8001808 <HAL_GPIO_Init>
 8000e18:	2340      	movs	r3, #64	; 0x40
 8000e1a:	9304      	str	r3, [sp, #16]
 8000e1c:	2300      	movs	r3, #0
 8000e1e:	9305      	str	r3, [sp, #20]
 8000e20:	9306      	str	r3, [sp, #24]
 8000e22:	a904      	add	r1, sp, #16
 8000e24:	4620      	mov	r0, r4
 8000e26:	f000 fcef 	bl	8001808 <HAL_GPIO_Init>
 8000e2a:	e7d5      	b.n	8000dd8 <HAL_SPI_MspInit+0x1c>
 8000e2c:	4b16      	ldr	r3, [pc, #88]	; (8000e88 <HAL_SPI_MspInit+0xcc>)
 8000e2e:	69da      	ldr	r2, [r3, #28]
 8000e30:	f442 4280 	orr.w	r2, r2, #16384	; 0x4000
 8000e34:	61da      	str	r2, [r3, #28]
 8000e36:	69da      	ldr	r2, [r3, #28]
 8000e38:	f402 4280 	and.w	r2, r2, #16384	; 0x4000
 8000e3c:	9202      	str	r2, [sp, #8]
 8000e3e:	9a02      	ldr	r2, [sp, #8]
 8000e40:	699a      	ldr	r2, [r3, #24]
 8000e42:	f042 0208 	orr.w	r2, r2, #8
 8000e46:	619a      	str	r2, [r3, #24]
 8000e48:	699b      	ldr	r3, [r3, #24]
 8000e4a:	f003 0308 	and.w	r3, r3, #8
 8000e4e:	9303      	str	r3, [sp, #12]
 8000e50:	9b03      	ldr	r3, [sp, #12]
 8000e52:	f44f 4320 	mov.w	r3, #40960	; 0xa000
 8000e56:	9304      	str	r3, [sp, #16]
 8000e58:	2302      	movs	r3, #2
 8000e5a:	9305      	str	r3, [sp, #20]
 8000e5c:	2303      	movs	r3, #3
 8000e5e:	9307      	str	r3, [sp, #28]
 8000e60:	4c0b      	ldr	r4, [pc, #44]	; (8000e90 <HAL_SPI_MspInit+0xd4>)
 8000e62:	a904      	add	r1, sp, #16
 8000e64:	4620      	mov	r0, r4
 8000e66:	f000 fccf 	bl	8001808 <HAL_GPIO_Init>
 8000e6a:	f44f 4380 	mov.w	r3, #16384	; 0x4000
 8000e6e:	9304      	str	r3, [sp, #16]
 8000e70:	2300      	movs	r3, #0
 8000e72:	9305      	str	r3, [sp, #20]
 8000e74:	9306      	str	r3, [sp, #24]
 8000e76:	a904      	add	r1, sp, #16
 8000e78:	4620      	mov	r0, r4
 8000e7a:	f000 fcc5 	bl	8001808 <HAL_GPIO_Init>
 8000e7e:	e7ab      	b.n	8000dd8 <HAL_SPI_MspInit+0x1c>
 8000e80:	40013000 	.word	0x40013000
 8000e84:	40003800 	.word	0x40003800
 8000e88:	40021000 	.word	0x40021000
 8000e8c:	40010800 	.word	0x40010800
 8000e90:	40010c00 	.word	0x40010c00

08000e94 <HAL_TIM_Base_MspInit>:
 8000e94:	b082      	sub	sp, #8
 8000e96:	6803      	ldr	r3, [r0, #0]
 8000e98:	f1b3 4f80 	cmp.w	r3, #1073741824	; 0x40000000
 8000e9c:	d004      	beq.n	8000ea8 <HAL_TIM_Base_MspInit+0x14>
 8000e9e:	4a0e      	ldr	r2, [pc, #56]	; (8000ed8 <HAL_TIM_Base_MspInit+0x44>)
 8000ea0:	4293      	cmp	r3, r2
 8000ea2:	d00d      	beq.n	8000ec0 <HAL_TIM_Base_MspInit+0x2c>
 8000ea4:	b002      	add	sp, #8
 8000ea6:	4770      	bx	lr
 8000ea8:	f503 3304 	add.w	r3, r3, #135168	; 0x21000
 8000eac:	69da      	ldr	r2, [r3, #28]
 8000eae:	f042 0201 	orr.w	r2, r2, #1
 8000eb2:	61da      	str	r2, [r3, #28]
 8000eb4:	69db      	ldr	r3, [r3, #28]
 8000eb6:	f003 0301 	and.w	r3, r3, #1
 8000eba:	9300      	str	r3, [sp, #0]
 8000ebc:	9b00      	ldr	r3, [sp, #0]
 8000ebe:	e7f1      	b.n	8000ea4 <HAL_TIM_Base_MspInit+0x10>
 8000ec0:	4b06      	ldr	r3, [pc, #24]	; (8000edc <HAL_TIM_Base_MspInit+0x48>)
 8000ec2:	69da      	ldr	r2, [r3, #28]
 8000ec4:	f042 0202 	orr.w	r2, r2, #2
 8000ec8:	61da      	str	r2, [r3, #28]
 8000eca:	69db      	ldr	r3, [r3, #28]
 8000ecc:	f003 0302 	and.w	r3, r3, #2
 8000ed0:	9301      	str	r3, [sp, #4]
 8000ed2:	9b01      	ldr	r3, [sp, #4]
 8000ed4:	e7e6      	b.n	8000ea4 <HAL_TIM_Base_MspInit+0x10>
 8000ed6:	bf00      	nop
 8000ed8:	40000400 	.word	0x40000400
 8000edc:	40021000 	.word	0x40021000

08000ee0 <HAL_TIM_MspPostInit>:
 8000ee0:	b500      	push	{lr}
 8000ee2:	b087      	sub	sp, #28
 8000ee4:	2300      	movs	r3, #0
 8000ee6:	9302      	str	r3, [sp, #8]
 8000ee8:	9303      	str	r3, [sp, #12]
 8000eea:	9304      	str	r3, [sp, #16]
 8000eec:	9305      	str	r3, [sp, #20]
 8000eee:	6802      	ldr	r2, [r0, #0]
 8000ef0:	4b0c      	ldr	r3, [pc, #48]	; (8000f24 <HAL_TIM_MspPostInit+0x44>)
 8000ef2:	429a      	cmp	r2, r3
 8000ef4:	d002      	beq.n	8000efc <HAL_TIM_MspPostInit+0x1c>
 8000ef6:	b007      	add	sp, #28
 8000ef8:	f85d fb04 	ldr.w	pc, [sp], #4
 8000efc:	f503 3303 	add.w	r3, r3, #134144	; 0x20c00
 8000f00:	699a      	ldr	r2, [r3, #24]
 8000f02:	f042 0208 	orr.w	r2, r2, #8
 8000f06:	619a      	str	r2, [r3, #24]
 8000f08:	699b      	ldr	r3, [r3, #24]
 8000f0a:	f003 0308 	and.w	r3, r3, #8
 8000f0e:	9301      	str	r3, [sp, #4]
 8000f10:	9b01      	ldr	r3, [sp, #4]
 8000f12:	2302      	movs	r3, #2
 8000f14:	9302      	str	r3, [sp, #8]
 8000f16:	9303      	str	r3, [sp, #12]
 8000f18:	9305      	str	r3, [sp, #20]
 8000f1a:	a902      	add	r1, sp, #8
 8000f1c:	4802      	ldr	r0, [pc, #8]	; (8000f28 <HAL_TIM_MspPostInit+0x48>)
 8000f1e:	f000 fc73 	bl	8001808 <HAL_GPIO_Init>
 8000f22:	e7e8      	b.n	8000ef6 <HAL_TIM_MspPostInit+0x16>
 8000f24:	40000400 	.word	0x40000400
 8000f28:	40010c00 	.word	0x40010c00

08000f2c <HAL_UART_MspInit>:
 8000f2c:	b570      	push	{r4, r5, r6, lr}
 8000f2e:	b08a      	sub	sp, #40	; 0x28
 8000f30:	2300      	movs	r3, #0
 8000f32:	9306      	str	r3, [sp, #24]
 8000f34:	9307      	str	r3, [sp, #28]
 8000f36:	9308      	str	r3, [sp, #32]
 8000f38:	9309      	str	r3, [sp, #36]	; 0x24
 8000f3a:	6803      	ldr	r3, [r0, #0]
 8000f3c:	4a50      	ldr	r2, [pc, #320]	; (8001080 <HAL_UART_MspInit+0x154>)
 8000f3e:	4293      	cmp	r3, r2
 8000f40:	d008      	beq.n	8000f54 <HAL_UART_MspInit+0x28>
 8000f42:	4604      	mov	r4, r0
 8000f44:	4a4f      	ldr	r2, [pc, #316]	; (8001084 <HAL_UART_MspInit+0x158>)
 8000f46:	4293      	cmp	r3, r2
 8000f48:	d033      	beq.n	8000fb2 <HAL_UART_MspInit+0x86>
 8000f4a:	4a4f      	ldr	r2, [pc, #316]	; (8001088 <HAL_UART_MspInit+0x15c>)
 8000f4c:	4293      	cmp	r3, r2
 8000f4e:	d06c      	beq.n	800102a <HAL_UART_MspInit+0xfe>
 8000f50:	b00a      	add	sp, #40	; 0x28
 8000f52:	bd70      	pop	{r4, r5, r6, pc}
 8000f54:	4b4d      	ldr	r3, [pc, #308]	; (800108c <HAL_UART_MspInit+0x160>)
 8000f56:	699a      	ldr	r2, [r3, #24]
 8000f58:	f442 4280 	orr.w	r2, r2, #16384	; 0x4000
 8000f5c:	619a      	str	r2, [r3, #24]
 8000f5e:	699a      	ldr	r2, [r3, #24]
 8000f60:	f402 4280 	and.w	r2, r2, #16384	; 0x4000
 8000f64:	9200      	str	r2, [sp, #0]
 8000f66:	9a00      	ldr	r2, [sp, #0]
 8000f68:	699a      	ldr	r2, [r3, #24]
 8000f6a:	f042 0208 	orr.w	r2, r2, #8
 8000f6e:	619a      	str	r2, [r3, #24]
 8000f70:	699b      	ldr	r3, [r3, #24]
 8000f72:	f003 0308 	and.w	r3, r3, #8
 8000f76:	9301      	str	r3, [sp, #4]
 8000f78:	9b01      	ldr	r3, [sp, #4]
 8000f7a:	2340      	movs	r3, #64	; 0x40
 8000f7c:	9306      	str	r3, [sp, #24]
 8000f7e:	2302      	movs	r3, #2
 8000f80:	9307      	str	r3, [sp, #28]
 8000f82:	2303      	movs	r3, #3
 8000f84:	9309      	str	r3, [sp, #36]	; 0x24
 8000f86:	4c42      	ldr	r4, [pc, #264]	; (8001090 <HAL_UART_MspInit+0x164>)
 8000f88:	a906      	add	r1, sp, #24
 8000f8a:	4620      	mov	r0, r4
 8000f8c:	f000 fc3c 	bl	8001808 <HAL_GPIO_Init>
 8000f90:	2380      	movs	r3, #128	; 0x80
 8000f92:	9306      	str	r3, [sp, #24]
 8000f94:	2300      	movs	r3, #0
 8000f96:	9307      	str	r3, [sp, #28]
 8000f98:	9308      	str	r3, [sp, #32]
 8000f9a:	a906      	add	r1, sp, #24
 8000f9c:	4620      	mov	r0, r4
 8000f9e:	f000 fc33 	bl	8001808 <HAL_GPIO_Init>
 8000fa2:	4a3c      	ldr	r2, [pc, #240]	; (8001094 <HAL_UART_MspInit+0x168>)
 8000fa4:	6853      	ldr	r3, [r2, #4]
 8000fa6:	f043 63e0 	orr.w	r3, r3, #117440512	; 0x7000000
 8000faa:	f043 0304 	orr.w	r3, r3, #4
 8000fae:	6053      	str	r3, [r2, #4]
 8000fb0:	e7ce      	b.n	8000f50 <HAL_UART_MspInit+0x24>
 8000fb2:	4b36      	ldr	r3, [pc, #216]	; (800108c <HAL_UART_MspInit+0x160>)
 8000fb4:	69da      	ldr	r2, [r3, #28]
 8000fb6:	f442 3200 	orr.w	r2, r2, #131072	; 0x20000
 8000fba:	61da      	str	r2, [r3, #28]
 8000fbc:	69da      	ldr	r2, [r3, #28]
 8000fbe:	f402 3200 	and.w	r2, r2, #131072	; 0x20000
 8000fc2:	9202      	str	r2, [sp, #8]
 8000fc4:	9a02      	ldr	r2, [sp, #8]
 8000fc6:	699a      	ldr	r2, [r3, #24]
 8000fc8:	f042 0204 	orr.w	r2, r2, #4
 8000fcc:	619a      	str	r2, [r3, #24]
 8000fce:	699b      	ldr	r3, [r3, #24]
 8000fd0:	f003 0304 	and.w	r3, r3, #4
 8000fd4:	9303      	str	r3, [sp, #12]
 8000fd6:	9b03      	ldr	r3, [sp, #12]
 8000fd8:	2304      	movs	r3, #4
 8000fda:	9306      	str	r3, [sp, #24]
 8000fdc:	2302      	movs	r3, #2
 8000fde:	9307      	str	r3, [sp, #28]
 8000fe0:	2303      	movs	r3, #3
 8000fe2:	9309      	str	r3, [sp, #36]	; 0x24
 8000fe4:	4e2c      	ldr	r6, [pc, #176]	; (8001098 <HAL_UART_MspInit+0x16c>)
 8000fe6:	a906      	add	r1, sp, #24
 8000fe8:	4630      	mov	r0, r6
 8000fea:	f000 fc0d 	bl	8001808 <HAL_GPIO_Init>
 8000fee:	2308      	movs	r3, #8
 8000ff0:	9306      	str	r3, [sp, #24]
 8000ff2:	2500      	movs	r5, #0
 8000ff4:	9507      	str	r5, [sp, #28]
 8000ff6:	9508      	str	r5, [sp, #32]
 8000ff8:	a906      	add	r1, sp, #24
 8000ffa:	4630      	mov	r0, r6
 8000ffc:	f000 fc04 	bl	8001808 <HAL_GPIO_Init>
 8001000:	4826      	ldr	r0, [pc, #152]	; (800109c <HAL_UART_MspInit+0x170>)
 8001002:	4b27      	ldr	r3, [pc, #156]	; (80010a0 <HAL_UART_MspInit+0x174>)
 8001004:	6003      	str	r3, [r0, #0]
 8001006:	6045      	str	r5, [r0, #4]
 8001008:	6085      	str	r5, [r0, #8]
 800100a:	2380      	movs	r3, #128	; 0x80
 800100c:	60c3      	str	r3, [r0, #12]
 800100e:	6105      	str	r5, [r0, #16]
 8001010:	6145      	str	r5, [r0, #20]
 8001012:	6185      	str	r5, [r0, #24]
 8001014:	61c5      	str	r5, [r0, #28]
 8001016:	f000 fae3 	bl	80015e0 <HAL_DMA_Init>
 800101a:	b918      	cbnz	r0, 8001024 <HAL_UART_MspInit+0xf8>
 800101c:	4b1f      	ldr	r3, [pc, #124]	; (800109c <HAL_UART_MspInit+0x170>)
 800101e:	63e3      	str	r3, [r4, #60]	; 0x3c
 8001020:	625c      	str	r4, [r3, #36]	; 0x24
 8001022:	e795      	b.n	8000f50 <HAL_UART_MspInit+0x24>
 8001024:	f7ff fe5f 	bl	8000ce6 <Error_Handler>
 8001028:	e7f8      	b.n	800101c <HAL_UART_MspInit+0xf0>
 800102a:	4b18      	ldr	r3, [pc, #96]	; (800108c <HAL_UART_MspInit+0x160>)
 800102c:	69da      	ldr	r2, [r3, #28]
 800102e:	f442 2280 	orr.w	r2, r2, #262144	; 0x40000
 8001032:	61da      	str	r2, [r3, #28]
 8001034:	69da      	ldr	r2, [r3, #28]
 8001036:	f402 2280 	and.w	r2, r2, #262144	; 0x40000
 800103a:	9204      	str	r2, [sp, #16]
 800103c:	9a04      	ldr	r2, [sp, #16]
 800103e:	699a      	ldr	r2, [r3, #24]
 8001040:	f042 0208 	orr.w	r2, r2, #8
 8001044:	619a      	str	r2, [r3, #24]
 8001046:	699b      	ldr	r3, [r3, #24]
 8001048:	f003 0308 	and.w	r3, r3, #8
 800104c:	9305      	str	r3, [sp, #20]
 800104e:	9b05      	ldr	r3, [sp, #20]
 8001050:	f44f 6380 	mov.w	r3, #1024	; 0x400
 8001054:	9306      	str	r3, [sp, #24]
 8001056:	2302      	movs	r3, #2
 8001058:	9307      	str	r3, [sp, #28]
 800105a:	2303      	movs	r3, #3
 800105c:	9309      	str	r3, [sp, #36]	; 0x24
 800105e:	4c0c      	ldr	r4, [pc, #48]	; (8001090 <HAL_UART_MspInit+0x164>)
 8001060:	a906      	add	r1, sp, #24
 8001062:	4620      	mov	r0, r4
 8001064:	f000 fbd0 	bl	8001808 <HAL_GPIO_Init>
 8001068:	f44f 6300 	mov.w	r3, #2048	; 0x800
 800106c:	9306      	str	r3, [sp, #24]
 800106e:	2300      	movs	r3, #0
 8001070:	9307      	str	r3, [sp, #28]
 8001072:	9308      	str	r3, [sp, #32]
 8001074:	a906      	add	r1, sp, #24
 8001076:	4620      	mov	r0, r4
 8001078:	f000 fbc6 	bl	8001808 <HAL_GPIO_Init>
 800107c:	e768      	b.n	8000f50 <HAL_UART_MspInit+0x24>
 800107e:	bf00      	nop
 8001080:	40013800 	.word	0x40013800
 8001084:	40004400 	.word	0x40004400
 8001088:	40004800 	.word	0x40004800
 800108c:	40021000 	.word	0x40021000
 8001090:	40010c00 	.word	0x40010c00
 8001094:	40010000 	.word	0x40010000
 8001098:	40010800 	.word	0x40010800
 800109c:	2000023c 	.word	0x2000023c
 80010a0:	4002006c 	.word	0x4002006c

080010a4 <NMI_Handler>:
 80010a4:	e7fe      	b.n	80010a4 <NMI_Handler>

080010a6 <HardFault_Handler>:
 80010a6:	e7fe      	b.n	80010a6 <HardFault_Handler>

080010a8 <MemManage_Handler>:
 80010a8:	e7fe      	b.n	80010a8 <MemManage_Handler>

080010aa <BusFault_Handler>:
 80010aa:	e7fe      	b.n	80010aa <BusFault_Handler>

080010ac <UsageFault_Handler>:
 80010ac:	e7fe      	b.n	80010ac <UsageFault_Handler>

080010ae <SVC_Handler>:
 80010ae:	4770      	bx	lr

080010b0 <DebugMon_Handler>:
 80010b0:	4770      	bx	lr

080010b2 <PendSV_Handler>:
 80010b2:	4770      	bx	lr

080010b4 <SysTick_Handler>:
 80010b4:	b508      	push	{r3, lr}
 80010b6:	f000 f8a7 	bl	8001208 <HAL_IncTick>
 80010ba:	bd08      	pop	{r3, pc}

080010bc <DMA1_Channel6_IRQHandler>:
 80010bc:	b508      	push	{r3, lr}
 80010be:	4802      	ldr	r0, [pc, #8]	; (80010c8 <DMA1_Channel6_IRQHandler+0xc>)
 80010c0:	f000 fb02 	bl	80016c8 <HAL_DMA_IRQHandler>
 80010c4:	bd08      	pop	{r3, pc}
 80010c6:	bf00      	nop
 80010c8:	2000023c 	.word	0x2000023c

080010cc <_read>:
 80010cc:	b570      	push	{r4, r5, r6, lr}
 80010ce:	1e16      	subs	r6, r2, #0
 80010d0:	dd07      	ble.n	80010e2 <_read+0x16>
 80010d2:	460c      	mov	r4, r1
 80010d4:	198d      	adds	r5, r1, r6
 80010d6:	f3af 8000 	nop.w
 80010da:	f804 0b01 	strb.w	r0, [r4], #1
 80010de:	42a5      	cmp	r5, r4
 80010e0:	d1f9      	bne.n	80010d6 <_read+0xa>
 80010e2:	4630      	mov	r0, r6
 80010e4:	bd70      	pop	{r4, r5, r6, pc}

080010e6 <_close>:
 80010e6:	f04f 30ff 	mov.w	r0, #4294967295
 80010ea:	4770      	bx	lr

080010ec <_fstat>:
 80010ec:	f44f 5300 	mov.w	r3, #8192	; 0x2000
 80010f0:	604b      	str	r3, [r1, #4]
 80010f2:	2000      	movs	r0, #0
 80010f4:	4770      	bx	lr

080010f6 <_isatty>:
 80010f6:	2001      	movs	r0, #1
 80010f8:	4770      	bx	lr

080010fa <_lseek>:
 80010fa:	2000      	movs	r0, #0
 80010fc:	4770      	bx	lr
	...

08001100 <_sbrk>:
 8001100:	b508      	push	{r3, lr}
 8001102:	4603      	mov	r3, r0
 8001104:	4a0c      	ldr	r2, [pc, #48]	; (8001138 <_sbrk+0x38>)
 8001106:	6812      	ldr	r2, [r2, #0]
 8001108:	b152      	cbz	r2, 8001120 <_sbrk+0x20>
 800110a:	4a0b      	ldr	r2, [pc, #44]	; (8001138 <_sbrk+0x38>)
 800110c:	6810      	ldr	r0, [r2, #0]
 800110e:	4403      	add	r3, r0
 8001110:	4a0a      	ldr	r2, [pc, #40]	; (800113c <_sbrk+0x3c>)
 8001112:	490b      	ldr	r1, [pc, #44]	; (8001140 <_sbrk+0x40>)
 8001114:	1a52      	subs	r2, r2, r1
 8001116:	4293      	cmp	r3, r2
 8001118:	d806      	bhi.n	8001128 <_sbrk+0x28>
 800111a:	4a07      	ldr	r2, [pc, #28]	; (8001138 <_sbrk+0x38>)
 800111c:	6013      	str	r3, [r2, #0]
 800111e:	bd08      	pop	{r3, pc}
 8001120:	4a05      	ldr	r2, [pc, #20]	; (8001138 <_sbrk+0x38>)
 8001122:	4908      	ldr	r1, [pc, #32]	; (8001144 <_sbrk+0x44>)
 8001124:	6011      	str	r1, [r2, #0]
 8001126:	e7f0      	b.n	800110a <_sbrk+0xa>
 8001128:	f002 f9ba 	bl	80034a0 <__errno>
 800112c:	230c      	movs	r3, #12
 800112e:	6003      	str	r3, [r0, #0]
 8001130:	f04f 30ff 	mov.w	r0, #4294967295
 8001134:	e7f3      	b.n	800111e <_sbrk+0x1e>
 8001136:	bf00      	nop
 8001138:	20000450 	.word	0x20000450
 800113c:	20005000 	.word	0x20005000
 8001140:	00000400 	.word	0x00000400
 8001144:	200005a8 	.word	0x200005a8

08001148 <SystemInit>:
 8001148:	4770      	bx	lr
	...

0800114c <Reset_Handler>:
 800114c:	f7ff fffc 	bl	8001148 <SystemInit>
 8001150:	480b      	ldr	r0, [pc, #44]	; (8001180 <LoopFillZerobss+0xe>)
 8001152:	490c      	ldr	r1, [pc, #48]	; (8001184 <LoopFillZerobss+0x12>)
 8001154:	4a0c      	ldr	r2, [pc, #48]	; (8001188 <LoopFillZerobss+0x16>)
 8001156:	2300      	movs	r3, #0
 8001158:	e002      	b.n	8001160 <LoopCopyDataInit>

0800115a <CopyDataInit>:
 800115a:	58d4      	ldr	r4, [r2, r3]
 800115c:	50c4      	str	r4, [r0, r3]
 800115e:	3304      	adds	r3, #4

08001160 <LoopCopyDataInit>:
 8001160:	18c4      	adds	r4, r0, r3
 8001162:	428c      	cmp	r4, r1
 8001164:	d3f9      	bcc.n	800115a <CopyDataInit>
 8001166:	4a09      	ldr	r2, [pc, #36]	; (800118c <LoopFillZerobss+0x1a>)
 8001168:	4c09      	ldr	r4, [pc, #36]	; (8001190 <LoopFillZerobss+0x1e>)
 800116a:	2300      	movs	r3, #0
 800116c:	e001      	b.n	8001172 <LoopFillZerobss>

0800116e <FillZerobss>:
 800116e:	6013      	str	r3, [r2, #0]
 8001170:	3204      	adds	r2, #4

08001172 <LoopFillZerobss>:
 8001172:	42a2      	cmp	r2, r4
 8001174:	d3fb      	bcc.n	800116e <FillZerobss>
 8001176:	f002 f999 	bl	80034ac <__libc_init_array>
 800117a:	f7ff fb75 	bl	8000868 <main>
 800117e:	4770      	bx	lr
 8001180:	20000000 	.word	0x20000000
 8001184:	20000068 	.word	0x20000068
 8001188:	08003fe8 	.word	0x08003fe8
 800118c:	20000068 	.word	0x20000068
 8001190:	200005a4 	.word	0x200005a4

08001194 <ADC1_2_IRQHandler>:
 8001194:	e7fe      	b.n	8001194 <ADC1_2_IRQHandler>
	...

08001198 <HAL_InitTick>:
 8001198:	b510      	push	{r4, lr}
 800119a:	4604      	mov	r4, r0
 800119c:	4b0e      	ldr	r3, [pc, #56]	; (80011d8 <HAL_InitTick+0x40>)
 800119e:	781a      	ldrb	r2, [r3, #0]
 80011a0:	f44f 737a 	mov.w	r3, #1000	; 0x3e8
 80011a4:	fbb3 f3f2 	udiv	r3, r3, r2
 80011a8:	4a0c      	ldr	r2, [pc, #48]	; (80011dc <HAL_InitTick+0x44>)
 80011aa:	6810      	ldr	r0, [r2, #0]
 80011ac:	fbb0 f0f3 	udiv	r0, r0, r3
 80011b0:	f000 f9f2 	bl	8001598 <HAL_SYSTICK_Config>
 80011b4:	b968      	cbnz	r0, 80011d2 <HAL_InitTick+0x3a>
 80011b6:	2c0f      	cmp	r4, #15
 80011b8:	d901      	bls.n	80011be <HAL_InitTick+0x26>
 80011ba:	2001      	movs	r0, #1
 80011bc:	e00a      	b.n	80011d4 <HAL_InitTick+0x3c>
 80011be:	2200      	movs	r2, #0
 80011c0:	4621      	mov	r1, r4
 80011c2:	f04f 30ff 	mov.w	r0, #4294967295
 80011c6:	f000 f9b1 	bl	800152c <HAL_NVIC_SetPriority>
 80011ca:	4b05      	ldr	r3, [pc, #20]	; (80011e0 <HAL_InitTick+0x48>)
 80011cc:	601c      	str	r4, [r3, #0]
 80011ce:	2000      	movs	r0, #0
 80011d0:	e000      	b.n	80011d4 <HAL_InitTick+0x3c>
 80011d2:	2001      	movs	r0, #1
 80011d4:	bd10      	pop	{r4, pc}
 80011d6:	bf00      	nop
 80011d8:	20000004 	.word	0x20000004
 80011dc:	20000000 	.word	0x20000000
 80011e0:	20000008 	.word	0x20000008

080011e4 <HAL_Init>:
 80011e4:	b508      	push	{r3, lr}
 80011e6:	4a07      	ldr	r2, [pc, #28]	; (8001204 <HAL_Init+0x20>)
 80011e8:	6813      	ldr	r3, [r2, #0]
 80011ea:	f043 0310 	orr.w	r3, r3, #16
 80011ee:	6013      	str	r3, [r2, #0]
 80011f0:	2003      	movs	r0, #3
 80011f2:	f000 f989 	bl	8001508 <HAL_NVIC_SetPriorityGrouping>
 80011f6:	200f      	movs	r0, #15
 80011f8:	f7ff ffce 	bl	8001198 <HAL_InitTick>
 80011fc:	f7ff fd76 	bl	8000cec <HAL_MspInit>
 8001200:	2000      	movs	r0, #0
 8001202:	bd08      	pop	{r3, pc}
 8001204:	40022000 	.word	0x40022000

08001208 <HAL_IncTick>:
 8001208:	4a03      	ldr	r2, [pc, #12]	; (8001218 <HAL_IncTick+0x10>)
 800120a:	6811      	ldr	r1, [r2, #0]
 800120c:	4b03      	ldr	r3, [pc, #12]	; (800121c <HAL_IncTick+0x14>)
 800120e:	781b      	ldrb	r3, [r3, #0]
 8001210:	440b      	add	r3, r1
 8001212:	6013      	str	r3, [r2, #0]
 8001214:	4770      	bx	lr
 8001216:	bf00      	nop
 8001218:	20000454 	.word	0x20000454
 800121c:	20000004 	.word	0x20000004

08001220 <HAL_GetTick>:
 8001220:	4b01      	ldr	r3, [pc, #4]	; (8001228 <HAL_GetTick+0x8>)
 8001222:	6818      	ldr	r0, [r3, #0]
 8001224:	4770      	bx	lr
 8001226:	bf00      	nop
 8001228:	20000454 	.word	0x20000454

0800122c <HAL_Delay>:
 800122c:	b538      	push	{r3, r4, r5, lr}
 800122e:	4604      	mov	r4, r0
 8001230:	f7ff fff6 	bl	8001220 <HAL_GetTick>
 8001234:	4605      	mov	r5, r0
 8001236:	f1b4 3fff 	cmp.w	r4, #4294967295
 800123a:	d002      	beq.n	8001242 <HAL_Delay+0x16>
 800123c:	4b04      	ldr	r3, [pc, #16]	; (8001250 <HAL_Delay+0x24>)
 800123e:	781b      	ldrb	r3, [r3, #0]
 8001240:	441c      	add	r4, r3
 8001242:	f7ff ffed 	bl	8001220 <HAL_GetTick>
 8001246:	1b40      	subs	r0, r0, r5
 8001248:	42a0      	cmp	r0, r4
 800124a:	d3fa      	bcc.n	8001242 <HAL_Delay+0x16>
 800124c:	bd38      	pop	{r3, r4, r5, pc}
 800124e:	bf00      	nop
 8001250:	20000004 	.word	0x20000004

08001254 <HAL_ADC_ConfigChannel>:
 8001254:	b430      	push	{r4, r5}
 8001256:	b082      	sub	sp, #8
 8001258:	2200      	movs	r2, #0
 800125a:	9201      	str	r2, [sp, #4]
 800125c:	f890 2024 	ldrb.w	r2, [r0, #36]	; 0x24
 8001260:	2a01      	cmp	r2, #1
 8001262:	f000 8093 	beq.w	800138c <HAL_ADC_ConfigChannel+0x138>
 8001266:	4603      	mov	r3, r0
 8001268:	2201      	movs	r2, #1
 800126a:	f880 2024 	strb.w	r2, [r0, #36]	; 0x24
 800126e:	684a      	ldr	r2, [r1, #4]
 8001270:	2a06      	cmp	r2, #6
 8001272:	d82d      	bhi.n	80012d0 <HAL_ADC_ConfigChannel+0x7c>
 8001274:	6804      	ldr	r4, [r0, #0]
 8001276:	6b60      	ldr	r0, [r4, #52]	; 0x34
 8001278:	eb02 0282 	add.w	r2, r2, r2, lsl #2
 800127c:	3a05      	subs	r2, #5
 800127e:	f04f 0c1f 	mov.w	ip, #31
 8001282:	fa0c fc02 	lsl.w	ip, ip, r2
 8001286:	ea20 000c 	bic.w	r0, r0, ip
 800128a:	680d      	ldr	r5, [r1, #0]
 800128c:	fa05 f202 	lsl.w	r2, r5, r2
 8001290:	4302      	orrs	r2, r0
 8001292:	6362      	str	r2, [r4, #52]	; 0x34
 8001294:	680a      	ldr	r2, [r1, #0]
 8001296:	2a09      	cmp	r2, #9
 8001298:	d938      	bls.n	800130c <HAL_ADC_ConfigChannel+0xb8>
 800129a:	681c      	ldr	r4, [r3, #0]
 800129c:	68e0      	ldr	r0, [r4, #12]
 800129e:	eb02 0242 	add.w	r2, r2, r2, lsl #1
 80012a2:	3a1e      	subs	r2, #30
 80012a4:	f04f 0c07 	mov.w	ip, #7
 80012a8:	fa0c fc02 	lsl.w	ip, ip, r2
 80012ac:	ea20 000c 	bic.w	r0, r0, ip
 80012b0:	688d      	ldr	r5, [r1, #8]
 80012b2:	fa05 f202 	lsl.w	r2, r5, r2
 80012b6:	4302      	orrs	r2, r0
 80012b8:	60e2      	str	r2, [r4, #12]
 80012ba:	680a      	ldr	r2, [r1, #0]
 80012bc:	3a10      	subs	r2, #16
 80012be:	2a01      	cmp	r2, #1
 80012c0:	d934      	bls.n	800132c <HAL_ADC_ConfigChannel+0xd8>
 80012c2:	2000      	movs	r0, #0
 80012c4:	2200      	movs	r2, #0
 80012c6:	f883 2024 	strb.w	r2, [r3, #36]	; 0x24
 80012ca:	b002      	add	sp, #8
 80012cc:	bc30      	pop	{r4, r5}
 80012ce:	4770      	bx	lr
 80012d0:	2a0c      	cmp	r2, #12
 80012d2:	d80d      	bhi.n	80012f0 <HAL_ADC_ConfigChannel+0x9c>
 80012d4:	6805      	ldr	r5, [r0, #0]
 80012d6:	6b28      	ldr	r0, [r5, #48]	; 0x30
 80012d8:	eb02 0282 	add.w	r2, r2, r2, lsl #2
 80012dc:	3a23      	subs	r2, #35	; 0x23
 80012de:	241f      	movs	r4, #31
 80012e0:	4094      	lsls	r4, r2
 80012e2:	ea20 0004 	bic.w	r0, r0, r4
 80012e6:	680c      	ldr	r4, [r1, #0]
 80012e8:	4094      	lsls	r4, r2
 80012ea:	4320      	orrs	r0, r4
 80012ec:	6328      	str	r0, [r5, #48]	; 0x30
 80012ee:	e7d1      	b.n	8001294 <HAL_ADC_ConfigChannel+0x40>
 80012f0:	6805      	ldr	r5, [r0, #0]
 80012f2:	6ae8      	ldr	r0, [r5, #44]	; 0x2c
 80012f4:	eb02 0282 	add.w	r2, r2, r2, lsl #2
 80012f8:	3a41      	subs	r2, #65	; 0x41
 80012fa:	241f      	movs	r4, #31
 80012fc:	4094      	lsls	r4, r2
 80012fe:	ea20 0004 	bic.w	r0, r0, r4
 8001302:	680c      	ldr	r4, [r1, #0]
 8001304:	4094      	lsls	r4, r2
 8001306:	4320      	orrs	r0, r4
 8001308:	62e8      	str	r0, [r5, #44]	; 0x2c
 800130a:	e7c3      	b.n	8001294 <HAL_ADC_ConfigChannel+0x40>
 800130c:	681c      	ldr	r4, [r3, #0]
 800130e:	6920      	ldr	r0, [r4, #16]
 8001310:	eb02 0242 	add.w	r2, r2, r2, lsl #1
 8001314:	f04f 0c07 	mov.w	ip, #7
 8001318:	fa0c fc02 	lsl.w	ip, ip, r2
 800131c:	ea20 000c 	bic.w	r0, r0, ip
 8001320:	688d      	ldr	r5, [r1, #8]
 8001322:	fa05 f202 	lsl.w	r2, r5, r2
 8001326:	4302      	orrs	r2, r0
 8001328:	6122      	str	r2, [r4, #16]
 800132a:	e7c6      	b.n	80012ba <HAL_ADC_ConfigChannel+0x66>
 800132c:	6818      	ldr	r0, [r3, #0]
 800132e:	4a18      	ldr	r2, [pc, #96]	; (8001390 <HAL_ADC_ConfigChannel+0x13c>)
 8001330:	4290      	cmp	r0, r2
 8001332:	d005      	beq.n	8001340 <HAL_ADC_ConfigChannel+0xec>
 8001334:	6a9a      	ldr	r2, [r3, #40]	; 0x28
 8001336:	f042 0220 	orr.w	r2, r2, #32
 800133a:	629a      	str	r2, [r3, #40]	; 0x28
 800133c:	2001      	movs	r0, #1
 800133e:	e7c1      	b.n	80012c4 <HAL_ADC_ConfigChannel+0x70>
 8001340:	6892      	ldr	r2, [r2, #8]
 8001342:	f412 0f00 	tst.w	r2, #8388608	; 0x800000
 8001346:	d11d      	bne.n	8001384 <HAL_ADC_ConfigChannel+0x130>
 8001348:	4811      	ldr	r0, [pc, #68]	; (8001390 <HAL_ADC_ConfigChannel+0x13c>)
 800134a:	6882      	ldr	r2, [r0, #8]
 800134c:	f442 0200 	orr.w	r2, r2, #8388608	; 0x800000
 8001350:	6082      	str	r2, [r0, #8]
 8001352:	680a      	ldr	r2, [r1, #0]
 8001354:	2a10      	cmp	r2, #16
 8001356:	d001      	beq.n	800135c <HAL_ADC_ConfigChannel+0x108>
 8001358:	2000      	movs	r0, #0
 800135a:	e7b3      	b.n	80012c4 <HAL_ADC_ConfigChannel+0x70>
 800135c:	4a0d      	ldr	r2, [pc, #52]	; (8001394 <HAL_ADC_ConfigChannel+0x140>)
 800135e:	6812      	ldr	r2, [r2, #0]
 8001360:	490d      	ldr	r1, [pc, #52]	; (8001398 <HAL_ADC_ConfigChannel+0x144>)
 8001362:	fba1 1202 	umull	r1, r2, r1, r2
 8001366:	0c92      	lsrs	r2, r2, #18
 8001368:	eb02 0282 	add.w	r2, r2, r2, lsl #2
 800136c:	0052      	lsls	r2, r2, #1
 800136e:	9201      	str	r2, [sp, #4]
 8001370:	9a01      	ldr	r2, [sp, #4]
 8001372:	b14a      	cbz	r2, 8001388 <HAL_ADC_ConfigChannel+0x134>
 8001374:	9a01      	ldr	r2, [sp, #4]
 8001376:	3a01      	subs	r2, #1
 8001378:	9201      	str	r2, [sp, #4]
 800137a:	9a01      	ldr	r2, [sp, #4]
 800137c:	2a00      	cmp	r2, #0
 800137e:	d1f9      	bne.n	8001374 <HAL_ADC_ConfigChannel+0x120>
 8001380:	2000      	movs	r0, #0
 8001382:	e79f      	b.n	80012c4 <HAL_ADC_ConfigChannel+0x70>
 8001384:	2000      	movs	r0, #0
 8001386:	e79d      	b.n	80012c4 <HAL_ADC_ConfigChannel+0x70>
 8001388:	2000      	movs	r0, #0
 800138a:	e79b      	b.n	80012c4 <HAL_ADC_ConfigChannel+0x70>
 800138c:	2002      	movs	r0, #2
 800138e:	e79c      	b.n	80012ca <HAL_ADC_ConfigChannel+0x76>
 8001390:	40012400 	.word	0x40012400
 8001394:	20000000 	.word	0x20000000
 8001398:	431bde83 	.word	0x431bde83

0800139c <ADC_ConversionStop_Disable>:
 800139c:	b538      	push	{r3, r4, r5, lr}
 800139e:	6803      	ldr	r3, [r0, #0]
 80013a0:	689a      	ldr	r2, [r3, #8]
 80013a2:	f012 0f01 	tst.w	r2, #1
 80013a6:	d101      	bne.n	80013ac <ADC_ConversionStop_Disable+0x10>
 80013a8:	2000      	movs	r0, #0
 80013aa:	bd38      	pop	{r3, r4, r5, pc}
 80013ac:	4604      	mov	r4, r0
 80013ae:	689a      	ldr	r2, [r3, #8]
 80013b0:	f022 0201 	bic.w	r2, r2, #1
 80013b4:	609a      	str	r2, [r3, #8]
 80013b6:	f7ff ff33 	bl	8001220 <HAL_GetTick>
 80013ba:	4605      	mov	r5, r0
 80013bc:	6823      	ldr	r3, [r4, #0]
 80013be:	689b      	ldr	r3, [r3, #8]
 80013c0:	f013 0f01 	tst.w	r3, #1
 80013c4:	d106      	bne.n	80013d4 <ADC_ConversionStop_Disable+0x38>
 80013c6:	2000      	movs	r0, #0
 80013c8:	e7ef      	b.n	80013aa <ADC_ConversionStop_Disable+0xe>
 80013ca:	6823      	ldr	r3, [r4, #0]
 80013cc:	689b      	ldr	r3, [r3, #8]
 80013ce:	f013 0f01 	tst.w	r3, #1
 80013d2:	d013      	beq.n	80013fc <ADC_ConversionStop_Disable+0x60>
 80013d4:	f7ff ff24 	bl	8001220 <HAL_GetTick>
 80013d8:	1b43      	subs	r3, r0, r5
 80013da:	2b02      	cmp	r3, #2
 80013dc:	d9f5      	bls.n	80013ca <ADC_ConversionStop_Disable+0x2e>
 80013de:	6823      	ldr	r3, [r4, #0]
 80013e0:	689b      	ldr	r3, [r3, #8]
 80013e2:	f013 0f01 	tst.w	r3, #1
 80013e6:	d0f0      	beq.n	80013ca <ADC_ConversionStop_Disable+0x2e>
 80013e8:	6aa3      	ldr	r3, [r4, #40]	; 0x28
 80013ea:	f043 0310 	orr.w	r3, r3, #16
 80013ee:	62a3      	str	r3, [r4, #40]	; 0x28
 80013f0:	6ae3      	ldr	r3, [r4, #44]	; 0x2c
 80013f2:	f043 0301 	orr.w	r3, r3, #1
 80013f6:	62e3      	str	r3, [r4, #44]	; 0x2c
 80013f8:	2001      	movs	r0, #1
 80013fa:	e7d6      	b.n	80013aa <ADC_ConversionStop_Disable+0xe>
 80013fc:	2000      	movs	r0, #0
 80013fe:	e7d4      	b.n	80013aa <ADC_ConversionStop_Disable+0xe>

08001400 <HAL_ADC_Init>:
 8001400:	2800      	cmp	r0, #0
 8001402:	d07a      	beq.n	80014fa <HAL_ADC_Init+0xfa>
 8001404:	b570      	push	{r4, r5, r6, lr}
 8001406:	4604      	mov	r4, r0
 8001408:	6a83      	ldr	r3, [r0, #40]	; 0x28
 800140a:	2b00      	cmp	r3, #0
 800140c:	d04f      	beq.n	80014ae <HAL_ADC_Init+0xae>
 800140e:	4620      	mov	r0, r4
 8001410:	f7ff ffc4 	bl	800139c <ADC_ConversionStop_Disable>
 8001414:	6aa3      	ldr	r3, [r4, #40]	; 0x28
 8001416:	f013 0310 	ands.w	r3, r3, #16
 800141a:	d168      	bne.n	80014ee <HAL_ADC_Init+0xee>
 800141c:	2800      	cmp	r0, #0
 800141e:	d166      	bne.n	80014ee <HAL_ADC_Init+0xee>
 8001420:	6aa2      	ldr	r2, [r4, #40]	; 0x28
 8001422:	f422 5288 	bic.w	r2, r2, #4352	; 0x1100
 8001426:	f022 0202 	bic.w	r2, r2, #2
 800142a:	f042 0202 	orr.w	r2, r2, #2
 800142e:	62a2      	str	r2, [r4, #40]	; 0x28
 8001430:	7b21      	ldrb	r1, [r4, #12]
 8001432:	6862      	ldr	r2, [r4, #4]
 8001434:	69e5      	ldr	r5, [r4, #28]
 8001436:	432a      	orrs	r2, r5
 8001438:	ea42 0241 	orr.w	r2, r2, r1, lsl #1
 800143c:	68a5      	ldr	r5, [r4, #8]
 800143e:	f5b5 7f80 	cmp.w	r5, #256	; 0x100
 8001442:	d004      	beq.n	800144e <HAL_ADC_Init+0x4e>
 8001444:	2d01      	cmp	r5, #1
 8001446:	bf14      	ite	ne
 8001448:	2500      	movne	r5, #0
 800144a:	2501      	moveq	r5, #1
 800144c:	022d      	lsls	r5, r5, #8
 800144e:	7d26      	ldrb	r6, [r4, #20]
 8001450:	2e01      	cmp	r6, #1
 8001452:	d032      	beq.n	80014ba <HAL_ADC_Init+0xba>
 8001454:	6826      	ldr	r6, [r4, #0]
 8001456:	6871      	ldr	r1, [r6, #4]
 8001458:	f421 4169 	bic.w	r1, r1, #59648	; 0xe900
 800145c:	4329      	orrs	r1, r5
 800145e:	6071      	str	r1, [r6, #4]
 8001460:	6825      	ldr	r5, [r4, #0]
 8001462:	68ae      	ldr	r6, [r5, #8]
 8001464:	4926      	ldr	r1, [pc, #152]	; (8001500 <HAL_ADC_Init+0x100>)
 8001466:	4031      	ands	r1, r6
 8001468:	4311      	orrs	r1, r2
 800146a:	60a9      	str	r1, [r5, #8]
 800146c:	68a1      	ldr	r1, [r4, #8]
 800146e:	f5b1 7f80 	cmp.w	r1, #256	; 0x100
 8001472:	d001      	beq.n	8001478 <HAL_ADC_Init+0x78>
 8001474:	2901      	cmp	r1, #1
 8001476:	d102      	bne.n	800147e <HAL_ADC_Init+0x7e>
 8001478:	6923      	ldr	r3, [r4, #16]
 800147a:	3b01      	subs	r3, #1
 800147c:	051b      	lsls	r3, r3, #20
 800147e:	6825      	ldr	r5, [r4, #0]
 8001480:	6ae9      	ldr	r1, [r5, #44]	; 0x2c
 8001482:	f421 0170 	bic.w	r1, r1, #15728640	; 0xf00000
 8001486:	430b      	orrs	r3, r1
 8001488:	62eb      	str	r3, [r5, #44]	; 0x2c
 800148a:	6823      	ldr	r3, [r4, #0]
 800148c:	6899      	ldr	r1, [r3, #8]
 800148e:	4b1d      	ldr	r3, [pc, #116]	; (8001504 <HAL_ADC_Init+0x104>)
 8001490:	400b      	ands	r3, r1
 8001492:	429a      	cmp	r2, r3
 8001494:	d022      	beq.n	80014dc <HAL_ADC_Init+0xdc>
 8001496:	6aa3      	ldr	r3, [r4, #40]	; 0x28
 8001498:	f023 0312 	bic.w	r3, r3, #18
 800149c:	f043 0310 	orr.w	r3, r3, #16
 80014a0:	62a3      	str	r3, [r4, #40]	; 0x28
 80014a2:	6ae3      	ldr	r3, [r4, #44]	; 0x2c
 80014a4:	f043 0301 	orr.w	r3, r3, #1
 80014a8:	62e3      	str	r3, [r4, #44]	; 0x2c
 80014aa:	2001      	movs	r0, #1
 80014ac:	e024      	b.n	80014f8 <HAL_ADC_Init+0xf8>
 80014ae:	62c3      	str	r3, [r0, #44]	; 0x2c
 80014b0:	f880 3024 	strb.w	r3, [r0, #36]	; 0x24
 80014b4:	f7ff fc3c 	bl	8000d30 <HAL_ADC_MspInit>
 80014b8:	e7a9      	b.n	800140e <HAL_ADC_Init+0xe>
 80014ba:	b931      	cbnz	r1, 80014ca <HAL_ADC_Init+0xca>
 80014bc:	69a1      	ldr	r1, [r4, #24]
 80014be:	3901      	subs	r1, #1
 80014c0:	ea45 3141 	orr.w	r1, r5, r1, lsl #13
 80014c4:	f441 6500 	orr.w	r5, r1, #2048	; 0x800
 80014c8:	e7c4      	b.n	8001454 <HAL_ADC_Init+0x54>
 80014ca:	6aa1      	ldr	r1, [r4, #40]	; 0x28
 80014cc:	f041 0120 	orr.w	r1, r1, #32
 80014d0:	62a1      	str	r1, [r4, #40]	; 0x28
 80014d2:	6ae1      	ldr	r1, [r4, #44]	; 0x2c
 80014d4:	f041 0101 	orr.w	r1, r1, #1
 80014d8:	62e1      	str	r1, [r4, #44]	; 0x2c
 80014da:	e7bb      	b.n	8001454 <HAL_ADC_Init+0x54>
 80014dc:	2300      	movs	r3, #0
 80014de:	62e3      	str	r3, [r4, #44]	; 0x2c
 80014e0:	6aa3      	ldr	r3, [r4, #40]	; 0x28
 80014e2:	f023 0303 	bic.w	r3, r3, #3
 80014e6:	f043 0301 	orr.w	r3, r3, #1
 80014ea:	62a3      	str	r3, [r4, #40]	; 0x28
 80014ec:	e004      	b.n	80014f8 <HAL_ADC_Init+0xf8>
 80014ee:	6aa3      	ldr	r3, [r4, #40]	; 0x28
 80014f0:	f043 0310 	orr.w	r3, r3, #16
 80014f4:	62a3      	str	r3, [r4, #40]	; 0x28
 80014f6:	2001      	movs	r0, #1
 80014f8:	bd70      	pop	{r4, r5, r6, pc}
 80014fa:	2001      	movs	r0, #1
 80014fc:	4770      	bx	lr
 80014fe:	bf00      	nop
 8001500:	ffe1f7fd 	.word	0xffe1f7fd
 8001504:	ff1f0efe 	.word	0xff1f0efe

08001508 <HAL_NVIC_SetPriorityGrouping>:
 8001508:	4907      	ldr	r1, [pc, #28]	; (8001528 <HAL_NVIC_SetPriorityGrouping+0x20>)
 800150a:	68ca      	ldr	r2, [r1, #12]
 800150c:	0203      	lsls	r3, r0, #8
 800150e:	f403 63e0 	and.w	r3, r3, #1792	; 0x700
 8001512:	f422 62e0 	bic.w	r2, r2, #1792	; 0x700
 8001516:	0412      	lsls	r2, r2, #16
 8001518:	0c12      	lsrs	r2, r2, #16
 800151a:	4313      	orrs	r3, r2
 800151c:	f043 63bf 	orr.w	r3, r3, #100139008	; 0x5f80000
 8001520:	f443 3300 	orr.w	r3, r3, #131072	; 0x20000
 8001524:	60cb      	str	r3, [r1, #12]
 8001526:	4770      	bx	lr
 8001528:	e000ed00 	.word	0xe000ed00

0800152c <HAL_NVIC_SetPriority>:
 800152c:	b500      	push	{lr}
 800152e:	4b18      	ldr	r3, [pc, #96]	; (8001590 <HAL_NVIC_SetPriority+0x64>)
 8001530:	68db      	ldr	r3, [r3, #12]
 8001532:	f3c3 2302 	ubfx	r3, r3, #8, #3
 8001536:	f1c3 0c07 	rsb	ip, r3, #7
 800153a:	f1bc 0f04 	cmp.w	ip, #4
 800153e:	bf28      	it	cs
 8001540:	f04f 0c04 	movcs.w	ip, #4
 8001544:	f103 0e04 	add.w	lr, r3, #4
 8001548:	f1be 0f06 	cmp.w	lr, #6
 800154c:	bf8c      	ite	hi
 800154e:	3b03      	subhi	r3, #3
 8001550:	2300      	movls	r3, #0
 8001552:	f04f 3eff 	mov.w	lr, #4294967295
 8001556:	fa0e fc0c 	lsl.w	ip, lr, ip
 800155a:	ea21 010c 	bic.w	r1, r1, ip
 800155e:	4099      	lsls	r1, r3
 8001560:	fa0e fe03 	lsl.w	lr, lr, r3
 8001564:	ea22 020e 	bic.w	r2, r2, lr
 8001568:	4311      	orrs	r1, r2
 800156a:	2800      	cmp	r0, #0
 800156c:	db09      	blt.n	8001582 <HAL_NVIC_SetPriority+0x56>
 800156e:	0109      	lsls	r1, r1, #4
 8001570:	b2c9      	uxtb	r1, r1
 8001572:	f100 4060 	add.w	r0, r0, #3758096384	; 0xe0000000
 8001576:	f500 4061 	add.w	r0, r0, #57600	; 0xe100
 800157a:	f880 1300 	strb.w	r1, [r0, #768]	; 0x300
 800157e:	f85d fb04 	ldr.w	pc, [sp], #4
 8001582:	f000 000f 	and.w	r0, r0, #15
 8001586:	0109      	lsls	r1, r1, #4
 8001588:	b2c9      	uxtb	r1, r1
 800158a:	4b02      	ldr	r3, [pc, #8]	; (8001594 <HAL_NVIC_SetPriority+0x68>)
 800158c:	5419      	strb	r1, [r3, r0]
 800158e:	e7f6      	b.n	800157e <HAL_NVIC_SetPriority+0x52>
 8001590:	e000ed00 	.word	0xe000ed00
 8001594:	e000ed14 	.word	0xe000ed14

08001598 <HAL_SYSTICK_Config>:
 8001598:	3801      	subs	r0, #1
 800159a:	f1b0 7f80 	cmp.w	r0, #16777216	; 0x1000000
 800159e:	d20b      	bcs.n	80015b8 <HAL_SYSTICK_Config+0x20>
 80015a0:	f04f 23e0 	mov.w	r3, #3758153728	; 0xe000e000
 80015a4:	6158      	str	r0, [r3, #20]
 80015a6:	4a05      	ldr	r2, [pc, #20]	; (80015bc <HAL_SYSTICK_Config+0x24>)
 80015a8:	21f0      	movs	r1, #240	; 0xf0
 80015aa:	f882 1023 	strb.w	r1, [r2, #35]	; 0x23
 80015ae:	2000      	movs	r0, #0
 80015b0:	6198      	str	r0, [r3, #24]
 80015b2:	2207      	movs	r2, #7
 80015b4:	611a      	str	r2, [r3, #16]
 80015b6:	4770      	bx	lr
 80015b8:	2001      	movs	r0, #1
 80015ba:	4770      	bx	lr
 80015bc:	e000ed00 	.word	0xe000ed00

080015c0 <HAL_CRC_Init>:
 80015c0:	b158      	cbz	r0, 80015da <HAL_CRC_Init+0x1a>
 80015c2:	b510      	push	{r4, lr}
 80015c4:	4604      	mov	r4, r0
 80015c6:	7943      	ldrb	r3, [r0, #5]
 80015c8:	b11b      	cbz	r3, 80015d2 <HAL_CRC_Init+0x12>
 80015ca:	2301      	movs	r3, #1
 80015cc:	7163      	strb	r3, [r4, #5]
 80015ce:	2000      	movs	r0, #0
 80015d0:	bd10      	pop	{r4, pc}
 80015d2:	7103      	strb	r3, [r0, #4]
 80015d4:	f7ff fbdc 	bl	8000d90 <HAL_CRC_MspInit>
 80015d8:	e7f7      	b.n	80015ca <HAL_CRC_Init+0xa>
 80015da:	2001      	movs	r0, #1
 80015dc:	4770      	bx	lr
	...

080015e0 <HAL_DMA_Init>:
 80015e0:	b360      	cbz	r0, 800163c <HAL_DMA_Init+0x5c>
 80015e2:	b410      	push	{r4}
 80015e4:	4602      	mov	r2, r0
 80015e6:	6801      	ldr	r1, [r0, #0]
 80015e8:	4b15      	ldr	r3, [pc, #84]	; (8001640 <HAL_DMA_Init+0x60>)
 80015ea:	440b      	add	r3, r1
 80015ec:	4815      	ldr	r0, [pc, #84]	; (8001644 <HAL_DMA_Init+0x64>)
 80015ee:	fba0 0303 	umull	r0, r3, r0, r3
 80015f2:	091b      	lsrs	r3, r3, #4
 80015f4:	009b      	lsls	r3, r3, #2
 80015f6:	6413      	str	r3, [r2, #64]	; 0x40
 80015f8:	4b13      	ldr	r3, [pc, #76]	; (8001648 <HAL_DMA_Init+0x68>)
 80015fa:	63d3      	str	r3, [r2, #60]	; 0x3c
 80015fc:	2302      	movs	r3, #2
 80015fe:	f882 3021 	strb.w	r3, [r2, #33]	; 0x21
 8001602:	6808      	ldr	r0, [r1, #0]
 8001604:	f420 507f 	bic.w	r0, r0, #16320	; 0x3fc0
 8001608:	f020 0030 	bic.w	r0, r0, #48	; 0x30
 800160c:	6853      	ldr	r3, [r2, #4]
 800160e:	6894      	ldr	r4, [r2, #8]
 8001610:	4323      	orrs	r3, r4
 8001612:	68d4      	ldr	r4, [r2, #12]
 8001614:	4323      	orrs	r3, r4
 8001616:	6914      	ldr	r4, [r2, #16]
 8001618:	4323      	orrs	r3, r4
 800161a:	6954      	ldr	r4, [r2, #20]
 800161c:	4323      	orrs	r3, r4
 800161e:	6994      	ldr	r4, [r2, #24]
 8001620:	4323      	orrs	r3, r4
 8001622:	69d4      	ldr	r4, [r2, #28]
 8001624:	4323      	orrs	r3, r4
 8001626:	4303      	orrs	r3, r0
 8001628:	600b      	str	r3, [r1, #0]
 800162a:	2000      	movs	r0, #0
 800162c:	6390      	str	r0, [r2, #56]	; 0x38
 800162e:	2301      	movs	r3, #1
 8001630:	f882 3021 	strb.w	r3, [r2, #33]	; 0x21
 8001634:	f882 0020 	strb.w	r0, [r2, #32]
 8001638:	bc10      	pop	{r4}
 800163a:	4770      	bx	lr
 800163c:	2001      	movs	r0, #1
 800163e:	4770      	bx	lr
 8001640:	bffdfff8 	.word	0xbffdfff8
 8001644:	cccccccd 	.word	0xcccccccd
 8001648:	40020000 	.word	0x40020000

0800164c <HAL_DMA_Start>:
 800164c:	f890 c020 	ldrb.w	ip, [r0, #32]
 8001650:	f1bc 0f01 	cmp.w	ip, #1
 8001654:	d035      	beq.n	80016c2 <HAL_DMA_Start+0x76>
 8001656:	f04f 0c01 	mov.w	ip, #1
 800165a:	f880 c020 	strb.w	ip, [r0, #32]
 800165e:	f890 c021 	ldrb.w	ip, [r0, #33]	; 0x21
 8001662:	fa5f fc8c 	uxtb.w	ip, ip
 8001666:	f1bc 0f01 	cmp.w	ip, #1
 800166a:	d004      	beq.n	8001676 <HAL_DMA_Start+0x2a>
 800166c:	2300      	movs	r3, #0
 800166e:	f880 3020 	strb.w	r3, [r0, #32]
 8001672:	2002      	movs	r0, #2
 8001674:	4770      	bx	lr
 8001676:	b470      	push	{r4, r5, r6}
 8001678:	2402      	movs	r4, #2
 800167a:	f880 4021 	strb.w	r4, [r0, #33]	; 0x21
 800167e:	2400      	movs	r4, #0
 8001680:	6384      	str	r4, [r0, #56]	; 0x38
 8001682:	6805      	ldr	r5, [r0, #0]
 8001684:	682c      	ldr	r4, [r5, #0]
 8001686:	f024 0401 	bic.w	r4, r4, #1
 800168a:	602c      	str	r4, [r5, #0]
 800168c:	6bc5      	ldr	r5, [r0, #60]	; 0x3c
 800168e:	2401      	movs	r4, #1
 8001690:	6c06      	ldr	r6, [r0, #64]	; 0x40
 8001692:	40b4      	lsls	r4, r6
 8001694:	606c      	str	r4, [r5, #4]
 8001696:	6804      	ldr	r4, [r0, #0]
 8001698:	6063      	str	r3, [r4, #4]
 800169a:	6843      	ldr	r3, [r0, #4]
 800169c:	2b10      	cmp	r3, #16
 800169e:	d00b      	beq.n	80016b8 <HAL_DMA_Start+0x6c>
 80016a0:	6803      	ldr	r3, [r0, #0]
 80016a2:	6099      	str	r1, [r3, #8]
 80016a4:	6803      	ldr	r3, [r0, #0]
 80016a6:	60da      	str	r2, [r3, #12]
 80016a8:	6802      	ldr	r2, [r0, #0]
 80016aa:	6813      	ldr	r3, [r2, #0]
 80016ac:	f043 0301 	orr.w	r3, r3, #1
 80016b0:	6013      	str	r3, [r2, #0]
 80016b2:	2000      	movs	r0, #0
 80016b4:	bc70      	pop	{r4, r5, r6}
 80016b6:	4770      	bx	lr
 80016b8:	6803      	ldr	r3, [r0, #0]
 80016ba:	609a      	str	r2, [r3, #8]
 80016bc:	6803      	ldr	r3, [r0, #0]
 80016be:	60d9      	str	r1, [r3, #12]
 80016c0:	e7f2      	b.n	80016a8 <HAL_DMA_Start+0x5c>
 80016c2:	2002      	movs	r0, #2
 80016c4:	4770      	bx	lr
	...

080016c8 <HAL_DMA_IRQHandler>:
 80016c8:	b538      	push	{r3, r4, r5, lr}
 80016ca:	6bc3      	ldr	r3, [r0, #60]	; 0x3c
 80016cc:	681a      	ldr	r2, [r3, #0]
 80016ce:	6804      	ldr	r4, [r0, #0]
 80016d0:	6825      	ldr	r5, [r4, #0]
 80016d2:	6c01      	ldr	r1, [r0, #64]	; 0x40
 80016d4:	2304      	movs	r3, #4
 80016d6:	408b      	lsls	r3, r1
 80016d8:	4213      	tst	r3, r2
 80016da:	d034      	beq.n	8001746 <HAL_DMA_IRQHandler+0x7e>
 80016dc:	f015 0f04 	tst.w	r5, #4
 80016e0:	d031      	beq.n	8001746 <HAL_DMA_IRQHandler+0x7e>
 80016e2:	6823      	ldr	r3, [r4, #0]
 80016e4:	f013 0f20 	tst.w	r3, #32
 80016e8:	d103      	bne.n	80016f2 <HAL_DMA_IRQHandler+0x2a>
 80016ea:	6823      	ldr	r3, [r4, #0]
 80016ec:	f023 0304 	bic.w	r3, r3, #4
 80016f0:	6023      	str	r3, [r4, #0]
 80016f2:	6803      	ldr	r3, [r0, #0]
 80016f4:	4a42      	ldr	r2, [pc, #264]	; (8001800 <HAL_DMA_IRQHandler+0x138>)
 80016f6:	4293      	cmp	r3, r2
 80016f8:	d013      	beq.n	8001722 <HAL_DMA_IRQHandler+0x5a>
 80016fa:	3214      	adds	r2, #20
 80016fc:	4293      	cmp	r3, r2
 80016fe:	d017      	beq.n	8001730 <HAL_DMA_IRQHandler+0x68>
 8001700:	3214      	adds	r2, #20
 8001702:	4293      	cmp	r3, r2
 8001704:	d016      	beq.n	8001734 <HAL_DMA_IRQHandler+0x6c>
 8001706:	3214      	adds	r2, #20
 8001708:	4293      	cmp	r3, r2
 800170a:	d016      	beq.n	800173a <HAL_DMA_IRQHandler+0x72>
 800170c:	3214      	adds	r2, #20
 800170e:	4293      	cmp	r3, r2
 8001710:	d016      	beq.n	8001740 <HAL_DMA_IRQHandler+0x78>
 8001712:	3214      	adds	r2, #20
 8001714:	4293      	cmp	r3, r2
 8001716:	bf0c      	ite	eq
 8001718:	f44f 0380 	moveq.w	r3, #4194304	; 0x400000
 800171c:	f04f 6380 	movne.w	r3, #67108864	; 0x4000000
 8001720:	e000      	b.n	8001724 <HAL_DMA_IRQHandler+0x5c>
 8001722:	2304      	movs	r3, #4
 8001724:	4a37      	ldr	r2, [pc, #220]	; (8001804 <HAL_DMA_IRQHandler+0x13c>)
 8001726:	6053      	str	r3, [r2, #4]
 8001728:	6ac3      	ldr	r3, [r0, #44]	; 0x2c
 800172a:	b103      	cbz	r3, 800172e <HAL_DMA_IRQHandler+0x66>
 800172c:	4798      	blx	r3
 800172e:	bd38      	pop	{r3, r4, r5, pc}
 8001730:	2340      	movs	r3, #64	; 0x40
 8001732:	e7f7      	b.n	8001724 <HAL_DMA_IRQHandler+0x5c>
 8001734:	f44f 6380 	mov.w	r3, #1024	; 0x400
 8001738:	e7f4      	b.n	8001724 <HAL_DMA_IRQHandler+0x5c>
 800173a:	f44f 4380 	mov.w	r3, #16384	; 0x4000
 800173e:	e7f1      	b.n	8001724 <HAL_DMA_IRQHandler+0x5c>
 8001740:	f44f 2380 	mov.w	r3, #262144	; 0x40000
 8001744:	e7ee      	b.n	8001724 <HAL_DMA_IRQHandler+0x5c>
 8001746:	2302      	movs	r3, #2
 8001748:	408b      	lsls	r3, r1
 800174a:	4213      	tst	r3, r2
 800174c:	d03b      	beq.n	80017c6 <HAL_DMA_IRQHandler+0xfe>
 800174e:	f015 0f02 	tst.w	r5, #2
 8001752:	d038      	beq.n	80017c6 <HAL_DMA_IRQHandler+0xfe>
 8001754:	6823      	ldr	r3, [r4, #0]
 8001756:	f013 0f20 	tst.w	r3, #32
 800175a:	d106      	bne.n	800176a <HAL_DMA_IRQHandler+0xa2>
 800175c:	6823      	ldr	r3, [r4, #0]
 800175e:	f023 030a 	bic.w	r3, r3, #10
 8001762:	6023      	str	r3, [r4, #0]
 8001764:	2301      	movs	r3, #1
 8001766:	f880 3021 	strb.w	r3, [r0, #33]	; 0x21
 800176a:	6803      	ldr	r3, [r0, #0]
 800176c:	4a24      	ldr	r2, [pc, #144]	; (8001800 <HAL_DMA_IRQHandler+0x138>)
 800176e:	4293      	cmp	r3, r2
 8001770:	d013      	beq.n	800179a <HAL_DMA_IRQHandler+0xd2>
 8001772:	3214      	adds	r2, #20
 8001774:	4293      	cmp	r3, r2
 8001776:	d01b      	beq.n	80017b0 <HAL_DMA_IRQHandler+0xe8>
 8001778:	3214      	adds	r2, #20
 800177a:	4293      	cmp	r3, r2
 800177c:	d01a      	beq.n	80017b4 <HAL_DMA_IRQHandler+0xec>
 800177e:	3214      	adds	r2, #20
 8001780:	4293      	cmp	r3, r2
 8001782:	d01a      	beq.n	80017ba <HAL_DMA_IRQHandler+0xf2>
 8001784:	3214      	adds	r2, #20
 8001786:	4293      	cmp	r3, r2
 8001788:	d01a      	beq.n	80017c0 <HAL_DMA_IRQHandler+0xf8>
 800178a:	3214      	adds	r2, #20
 800178c:	4293      	cmp	r3, r2
 800178e:	bf0c      	ite	eq
 8001790:	f44f 1300 	moveq.w	r3, #2097152	; 0x200000
 8001794:	f04f 7300 	movne.w	r3, #33554432	; 0x2000000
 8001798:	e000      	b.n	800179c <HAL_DMA_IRQHandler+0xd4>
 800179a:	2302      	movs	r3, #2
 800179c:	4a19      	ldr	r2, [pc, #100]	; (8001804 <HAL_DMA_IRQHandler+0x13c>)
 800179e:	6053      	str	r3, [r2, #4]
 80017a0:	2300      	movs	r3, #0
 80017a2:	f880 3020 	strb.w	r3, [r0, #32]
 80017a6:	6a83      	ldr	r3, [r0, #40]	; 0x28
 80017a8:	2b00      	cmp	r3, #0
 80017aa:	d0c0      	beq.n	800172e <HAL_DMA_IRQHandler+0x66>
 80017ac:	4798      	blx	r3
 80017ae:	e7be      	b.n	800172e <HAL_DMA_IRQHandler+0x66>
 80017b0:	2320      	movs	r3, #32
 80017b2:	e7f3      	b.n	800179c <HAL_DMA_IRQHandler+0xd4>
 80017b4:	f44f 7300 	mov.w	r3, #512	; 0x200
 80017b8:	e7f0      	b.n	800179c <HAL_DMA_IRQHandler+0xd4>
 80017ba:	f44f 5300 	mov.w	r3, #8192	; 0x2000
 80017be:	e7ed      	b.n	800179c <HAL_DMA_IRQHandler+0xd4>
 80017c0:	f44f 3300 	mov.w	r3, #131072	; 0x20000
 80017c4:	e7ea      	b.n	800179c <HAL_DMA_IRQHandler+0xd4>
 80017c6:	2308      	movs	r3, #8
 80017c8:	408b      	lsls	r3, r1
 80017ca:	4213      	tst	r3, r2
 80017cc:	d0af      	beq.n	800172e <HAL_DMA_IRQHandler+0x66>
 80017ce:	f015 0f08 	tst.w	r5, #8
 80017d2:	d0ac      	beq.n	800172e <HAL_DMA_IRQHandler+0x66>
 80017d4:	6823      	ldr	r3, [r4, #0]
 80017d6:	f023 030e 	bic.w	r3, r3, #14
 80017da:	6023      	str	r3, [r4, #0]
 80017dc:	6bc1      	ldr	r1, [r0, #60]	; 0x3c
 80017de:	2301      	movs	r3, #1
 80017e0:	6c02      	ldr	r2, [r0, #64]	; 0x40
 80017e2:	fa03 f202 	lsl.w	r2, r3, r2
 80017e6:	604a      	str	r2, [r1, #4]
 80017e8:	6383      	str	r3, [r0, #56]	; 0x38
 80017ea:	f880 3021 	strb.w	r3, [r0, #33]	; 0x21
 80017ee:	2300      	movs	r3, #0
 80017f0:	f880 3020 	strb.w	r3, [r0, #32]
 80017f4:	6b03      	ldr	r3, [r0, #48]	; 0x30
 80017f6:	2b00      	cmp	r3, #0
 80017f8:	d099      	beq.n	800172e <HAL_DMA_IRQHandler+0x66>
 80017fa:	4798      	blx	r3
 80017fc:	e797      	b.n	800172e <HAL_DMA_IRQHandler+0x66>
 80017fe:	bf00      	nop
 8001800:	40020008 	.word	0x40020008
 8001804:	40020000 	.word	0x40020000

08001808 <HAL_GPIO_Init>:
 8001808:	e92d 4ff0 	stmdb	sp!, {r4, r5, r6, r7, r8, r9, sl, fp, lr}
 800180c:	b083      	sub	sp, #12
 800180e:	f8d1 9000 	ldr.w	r9, [r1]
 8001812:	f1b9 0f00 	cmp.w	r9, #0
 8001816:	f000 811f 	beq.w	8001a58 <HAL_GPIO_Init+0x250>
 800181a:	2200      	movs	r2, #0
 800181c:	4613      	mov	r3, r2
 800181e:	4e90      	ldr	r6, [pc, #576]	; (8001a60 <HAL_GPIO_Init+0x258>)
 8001820:	4c90      	ldr	r4, [pc, #576]	; (8001a64 <HAL_GPIO_Init+0x25c>)
 8001822:	4d91      	ldr	r5, [pc, #580]	; (8001a68 <HAL_GPIO_Init+0x260>)
 8001824:	f8df e244 	ldr.w	lr, [pc, #580]	; 8001a6c <HAL_GPIO_Init+0x264>
 8001828:	4694      	mov	ip, r2
 800182a:	e0ba      	b.n	80019a2 <HAL_GPIO_Init+0x19a>
 800182c:	f04f 0c00 	mov.w	ip, #0
 8001830:	e025      	b.n	800187e <HAL_GPIO_Init+0x76>
 8001832:	45a9      	cmp	r9, r5
 8001834:	d00f      	beq.n	8001856 <HAL_GPIO_Init+0x4e>
 8001836:	d906      	bls.n	8001846 <HAL_GPIO_Init+0x3e>
 8001838:	45f1      	cmp	r9, lr
 800183a:	d00c      	beq.n	8001856 <HAL_GPIO_Init+0x4e>
 800183c:	f8df a230 	ldr.w	sl, [pc, #560]	; 8001a70 <HAL_GPIO_Init+0x268>
 8001840:	45d1      	cmp	r9, sl
 8001842:	d008      	beq.n	8001856 <HAL_GPIO_Init+0x4e>
 8001844:	e01b      	b.n	800187e <HAL_GPIO_Init+0x76>
 8001846:	f8df a22c 	ldr.w	sl, [pc, #556]	; 8001a74 <HAL_GPIO_Init+0x26c>
 800184a:	45d1      	cmp	r9, sl
 800184c:	d003      	beq.n	8001856 <HAL_GPIO_Init+0x4e>
 800184e:	f50a 2a70 	add.w	sl, sl, #983040	; 0xf0000
 8001852:	45d1      	cmp	r9, sl
 8001854:	d10f      	bne.n	8001876 <HAL_GPIO_Init+0x6e>
 8001856:	f8d1 c008 	ldr.w	ip, [r1, #8]
 800185a:	f1bc 0f00 	cmp.w	ip, #0
 800185e:	f000 80ef 	beq.w	8001a40 <HAL_GPIO_Init+0x238>
 8001862:	f1bc 0f01 	cmp.w	ip, #1
 8001866:	bf0c      	ite	eq
 8001868:	f8c0 8010 	streq.w	r8, [r0, #16]
 800186c:	f8c0 8014 	strne.w	r8, [r0, #20]
 8001870:	f04f 0c08 	mov.w	ip, #8
 8001874:	e003      	b.n	800187e <HAL_GPIO_Init+0x76>
 8001876:	f5aa 1a80 	sub.w	sl, sl, #1048576	; 0x100000
 800187a:	45d1      	cmp	r9, sl
 800187c:	d0eb      	beq.n	8001856 <HAL_GPIO_Init+0x4e>
 800187e:	2fff      	cmp	r7, #255	; 0xff
 8001880:	bf99      	ittee	ls
 8001882:	4681      	movls	r9, r0
 8001884:	4692      	movls	sl, r2
 8001886:	f100 0904 	addhi.w	r9, r0, #4
 800188a:	f1a2 0a20 	subhi.w	sl, r2, #32
 800188e:	f8d9 8000 	ldr.w	r8, [r9]
 8001892:	f04f 0b0f 	mov.w	fp, #15
 8001896:	fa0b fb0a 	lsl.w	fp, fp, sl
 800189a:	ea28 080b 	bic.w	r8, r8, fp
 800189e:	fa0c fa0a 	lsl.w	sl, ip, sl
 80018a2:	ea48 080a 	orr.w	r8, r8, sl
 80018a6:	f8c9 8000 	str.w	r8, [r9]
 80018aa:	f8d1 8004 	ldr.w	r8, [r1, #4]
 80018ae:	f018 5f80 	tst.w	r8, #268435456	; 0x10000000
 80018b2:	d06f      	beq.n	8001994 <HAL_GPIO_Init+0x18c>
 80018b4:	f8d6 8018 	ldr.w	r8, [r6, #24]
 80018b8:	f048 0801 	orr.w	r8, r8, #1
 80018bc:	f8c6 8018 	str.w	r8, [r6, #24]
 80018c0:	f8d6 8018 	ldr.w	r8, [r6, #24]
 80018c4:	f008 0801 	and.w	r8, r8, #1
 80018c8:	f8cd 8004 	str.w	r8, [sp, #4]
 80018cc:	f8dd 8004 	ldr.w	r8, [sp, #4]
 80018d0:	f023 0803 	bic.w	r8, r3, #3
 80018d4:	f108 4880 	add.w	r8, r8, #1073741824	; 0x40000000
 80018d8:	f508 3880 	add.w	r8, r8, #65536	; 0x10000
 80018dc:	f8d8 a008 	ldr.w	sl, [r8, #8]
 80018e0:	f003 0b03 	and.w	fp, r3, #3
 80018e4:	ea4f 0b8b 	mov.w	fp, fp, lsl #2
 80018e8:	f04f 090f 	mov.w	r9, #15
 80018ec:	fa09 f90b 	lsl.w	r9, r9, fp
 80018f0:	ea2a 0a09 	bic.w	sl, sl, r9
 80018f4:	f8df 9180 	ldr.w	r9, [pc, #384]	; 8001a78 <HAL_GPIO_Init+0x270>
 80018f8:	4548      	cmp	r0, r9
 80018fa:	f000 80a4 	beq.w	8001a46 <HAL_GPIO_Init+0x23e>
 80018fe:	f509 6980 	add.w	r9, r9, #1024	; 0x400
 8001902:	4548      	cmp	r0, r9
 8001904:	f000 80a2 	beq.w	8001a4c <HAL_GPIO_Init+0x244>
 8001908:	f509 6980 	add.w	r9, r9, #1024	; 0x400
 800190c:	4548      	cmp	r0, r9
 800190e:	f000 80a0 	beq.w	8001a52 <HAL_GPIO_Init+0x24a>
 8001912:	f509 6980 	add.w	r9, r9, #1024	; 0x400
 8001916:	4548      	cmp	r0, r9
 8001918:	bf0c      	ite	eq
 800191a:	f04f 0903 	moveq.w	r9, #3
 800191e:	f04f 0904 	movne.w	r9, #4
 8001922:	fa09 f90b 	lsl.w	r9, r9, fp
 8001926:	ea49 090a 	orr.w	r9, r9, sl
 800192a:	f8c8 9008 	str.w	r9, [r8, #8]
 800192e:	f8d1 8004 	ldr.w	r8, [r1, #4]
 8001932:	f418 1f80 	tst.w	r8, #1048576	; 0x100000
 8001936:	f8d4 8008 	ldr.w	r8, [r4, #8]
 800193a:	bf14      	ite	ne
 800193c:	ea48 0807 	orrne.w	r8, r8, r7
 8001940:	ea28 0807 	biceq.w	r8, r8, r7
 8001944:	f8c4 8008 	str.w	r8, [r4, #8]
 8001948:	f8d1 8004 	ldr.w	r8, [r1, #4]
 800194c:	f418 1f00 	tst.w	r8, #2097152	; 0x200000
 8001950:	f8d4 800c 	ldr.w	r8, [r4, #12]
 8001954:	bf14      	ite	ne
 8001956:	ea48 0807 	orrne.w	r8, r8, r7
 800195a:	ea28 0807 	biceq.w	r8, r8, r7
 800195e:	f8c4 800c 	str.w	r8, [r4, #12]
 8001962:	f8d1 8004 	ldr.w	r8, [r1, #4]
 8001966:	f418 3f00 	tst.w	r8, #131072	; 0x20000
 800196a:	f8d4 8004 	ldr.w	r8, [r4, #4]
 800196e:	bf14      	ite	ne
 8001970:	ea48 0807 	orrne.w	r8, r8, r7
 8001974:	ea28 0807 	biceq.w	r8, r8, r7
 8001978:	f8c4 8004 	str.w	r8, [r4, #4]
 800197c:	f8d1 8004 	ldr.w	r8, [r1, #4]
 8001980:	f418 3f80 	tst.w	r8, #65536	; 0x10000
 8001984:	f8d4 8000 	ldr.w	r8, [r4]
 8001988:	bf14      	ite	ne
 800198a:	ea48 0707 	orrne.w	r7, r8, r7
 800198e:	ea28 0707 	biceq.w	r7, r8, r7
 8001992:	6027      	str	r7, [r4, #0]
 8001994:	3301      	adds	r3, #1
 8001996:	f8d1 9000 	ldr.w	r9, [r1]
 800199a:	3204      	adds	r2, #4
 800199c:	fa39 f703 	lsrs.w	r7, r9, r3
 80019a0:	d05a      	beq.n	8001a58 <HAL_GPIO_Init+0x250>
 80019a2:	f04f 0801 	mov.w	r8, #1
 80019a6:	fa08 f803 	lsl.w	r8, r8, r3
 80019aa:	ea08 0709 	and.w	r7, r8, r9
 80019ae:	ea38 0909 	bics.w	r9, r8, r9
 80019b2:	d1ef      	bne.n	8001994 <HAL_GPIO_Init+0x18c>
 80019b4:	f8d1 9004 	ldr.w	r9, [r1, #4]
 80019b8:	f1b9 0f12 	cmp.w	r9, #18
 80019bc:	f63f af39 	bhi.w	8001832 <HAL_GPIO_Init+0x2a>
 80019c0:	f1b9 0f12 	cmp.w	r9, #18
 80019c4:	f63f af5b 	bhi.w	800187e <HAL_GPIO_Init+0x76>
 80019c8:	f20f 0a04 	addw	sl, pc, #4
 80019cc:	f85a f029 	ldr.w	pc, [sl, r9, lsl #2]
 80019d0:	08001857 	.word	0x08001857
 80019d4:	08001a1d 	.word	0x08001a1d
 80019d8:	08001a2d 	.word	0x08001a2d
 80019dc:	0800182d 	.word	0x0800182d
 80019e0:	0800187f 	.word	0x0800187f
 80019e4:	0800187f 	.word	0x0800187f
 80019e8:	0800187f 	.word	0x0800187f
 80019ec:	0800187f 	.word	0x0800187f
 80019f0:	0800187f 	.word	0x0800187f
 80019f4:	0800187f 	.word	0x0800187f
 80019f8:	0800187f 	.word	0x0800187f
 80019fc:	0800187f 	.word	0x0800187f
 8001a00:	0800187f 	.word	0x0800187f
 8001a04:	0800187f 	.word	0x0800187f
 8001a08:	0800187f 	.word	0x0800187f
 8001a0c:	0800187f 	.word	0x0800187f
 8001a10:	0800187f 	.word	0x0800187f
 8001a14:	08001a23 	.word	0x08001a23
 8001a18:	08001a37 	.word	0x08001a37
 8001a1c:	f8d1 c00c 	ldr.w	ip, [r1, #12]
 8001a20:	e72d      	b.n	800187e <HAL_GPIO_Init+0x76>
 8001a22:	f8d1 c00c 	ldr.w	ip, [r1, #12]
 8001a26:	f10c 0c04 	add.w	ip, ip, #4
 8001a2a:	e728      	b.n	800187e <HAL_GPIO_Init+0x76>
 8001a2c:	f8d1 c00c 	ldr.w	ip, [r1, #12]
 8001a30:	f10c 0c08 	add.w	ip, ip, #8
 8001a34:	e723      	b.n	800187e <HAL_GPIO_Init+0x76>
 8001a36:	f8d1 c00c 	ldr.w	ip, [r1, #12]
 8001a3a:	f10c 0c0c 	add.w	ip, ip, #12
 8001a3e:	e71e      	b.n	800187e <HAL_GPIO_Init+0x76>
 8001a40:	f04f 0c04 	mov.w	ip, #4
 8001a44:	e71b      	b.n	800187e <HAL_GPIO_Init+0x76>
 8001a46:	f04f 0900 	mov.w	r9, #0
 8001a4a:	e76a      	b.n	8001922 <HAL_GPIO_Init+0x11a>
 8001a4c:	f04f 0901 	mov.w	r9, #1
 8001a50:	e767      	b.n	8001922 <HAL_GPIO_Init+0x11a>
 8001a52:	f04f 0902 	mov.w	r9, #2
 8001a56:	e764      	b.n	8001922 <HAL_GPIO_Init+0x11a>
 8001a58:	b003      	add	sp, #12
 8001a5a:	e8bd 8ff0 	ldmia.w	sp!, {r4, r5, r6, r7, r8, r9, sl, fp, pc}
 8001a5e:	bf00      	nop
 8001a60:	40021000 	.word	0x40021000
 8001a64:	40010400 	.word	0x40010400
 8001a68:	10220000 	.word	0x10220000
 8001a6c:	10310000 	.word	0x10310000
 8001a70:	10320000 	.word	0x10320000
 8001a74:	10120000 	.word	0x10120000
 8001a78:	40010800 	.word	0x40010800

08001a7c <HAL_GPIO_WritePin>:
 8001a7c:	b10a      	cbz	r2, 8001a82 <HAL_GPIO_WritePin+0x6>
 8001a7e:	6101      	str	r1, [r0, #16]
 8001a80:	4770      	bx	lr
 8001a82:	0409      	lsls	r1, r1, #16
 8001a84:	6101      	str	r1, [r0, #16]
 8001a86:	4770      	bx	lr

08001a88 <HAL_RCC_OscConfig>:
 8001a88:	2800      	cmp	r0, #0
 8001a8a:	f000 8201 	beq.w	8001e90 <HAL_RCC_OscConfig+0x408>
 8001a8e:	e92d 41f0 	stmdb	sp!, {r4, r5, r6, r7, r8, lr}
 8001a92:	b082      	sub	sp, #8
 8001a94:	4604      	mov	r4, r0
 8001a96:	6803      	ldr	r3, [r0, #0]
 8001a98:	f013 0f01 	tst.w	r3, #1
 8001a9c:	d02c      	beq.n	8001af8 <HAL_RCC_OscConfig+0x70>
 8001a9e:	4b9f      	ldr	r3, [pc, #636]	; (8001d1c <HAL_RCC_OscConfig+0x294>)
 8001aa0:	685b      	ldr	r3, [r3, #4]
 8001aa2:	f003 030c 	and.w	r3, r3, #12
 8001aa6:	2b04      	cmp	r3, #4
 8001aa8:	d01d      	beq.n	8001ae6 <HAL_RCC_OscConfig+0x5e>
 8001aaa:	4b9c      	ldr	r3, [pc, #624]	; (8001d1c <HAL_RCC_OscConfig+0x294>)
 8001aac:	685b      	ldr	r3, [r3, #4]
 8001aae:	f003 030c 	and.w	r3, r3, #12
 8001ab2:	2b08      	cmp	r3, #8
 8001ab4:	d012      	beq.n	8001adc <HAL_RCC_OscConfig+0x54>
 8001ab6:	6863      	ldr	r3, [r4, #4]
 8001ab8:	f5b3 3f80 	cmp.w	r3, #65536	; 0x10000
 8001abc:	d041      	beq.n	8001b42 <HAL_RCC_OscConfig+0xba>
 8001abe:	2b00      	cmp	r3, #0
 8001ac0:	d155      	bne.n	8001b6e <HAL_RCC_OscConfig+0xe6>
 8001ac2:	f103 4380 	add.w	r3, r3, #1073741824	; 0x40000000
 8001ac6:	f503 3304 	add.w	r3, r3, #135168	; 0x21000
 8001aca:	681a      	ldr	r2, [r3, #0]
 8001acc:	f422 3280 	bic.w	r2, r2, #65536	; 0x10000
 8001ad0:	601a      	str	r2, [r3, #0]
 8001ad2:	681a      	ldr	r2, [r3, #0]
 8001ad4:	f422 2280 	bic.w	r2, r2, #262144	; 0x40000
 8001ad8:	601a      	str	r2, [r3, #0]
 8001ada:	e037      	b.n	8001b4c <HAL_RCC_OscConfig+0xc4>
 8001adc:	4b8f      	ldr	r3, [pc, #572]	; (8001d1c <HAL_RCC_OscConfig+0x294>)
 8001ade:	685b      	ldr	r3, [r3, #4]
 8001ae0:	f413 3f80 	tst.w	r3, #65536	; 0x10000
 8001ae4:	d0e7      	beq.n	8001ab6 <HAL_RCC_OscConfig+0x2e>
 8001ae6:	4b8d      	ldr	r3, [pc, #564]	; (8001d1c <HAL_RCC_OscConfig+0x294>)
 8001ae8:	681b      	ldr	r3, [r3, #0]
 8001aea:	f413 3f00 	tst.w	r3, #131072	; 0x20000
 8001aee:	d003      	beq.n	8001af8 <HAL_RCC_OscConfig+0x70>
 8001af0:	6863      	ldr	r3, [r4, #4]
 8001af2:	2b00      	cmp	r3, #0
 8001af4:	f000 81ce 	beq.w	8001e94 <HAL_RCC_OscConfig+0x40c>
 8001af8:	6823      	ldr	r3, [r4, #0]
 8001afa:	f013 0f02 	tst.w	r3, #2
 8001afe:	d075      	beq.n	8001bec <HAL_RCC_OscConfig+0x164>
 8001b00:	4b86      	ldr	r3, [pc, #536]	; (8001d1c <HAL_RCC_OscConfig+0x294>)
 8001b02:	685b      	ldr	r3, [r3, #4]
 8001b04:	f013 0f0c 	tst.w	r3, #12
 8001b08:	d05f      	beq.n	8001bca <HAL_RCC_OscConfig+0x142>
 8001b0a:	4b84      	ldr	r3, [pc, #528]	; (8001d1c <HAL_RCC_OscConfig+0x294>)
 8001b0c:	685b      	ldr	r3, [r3, #4]
 8001b0e:	f003 030c 	and.w	r3, r3, #12
 8001b12:	2b08      	cmp	r3, #8
 8001b14:	d054      	beq.n	8001bc0 <HAL_RCC_OscConfig+0x138>
 8001b16:	6923      	ldr	r3, [r4, #16]
 8001b18:	2b00      	cmp	r3, #0
 8001b1a:	f000 808a 	beq.w	8001c32 <HAL_RCC_OscConfig+0x1aa>
 8001b1e:	4b80      	ldr	r3, [pc, #512]	; (8001d20 <HAL_RCC_OscConfig+0x298>)
 8001b20:	2201      	movs	r2, #1
 8001b22:	601a      	str	r2, [r3, #0]
 8001b24:	f7ff fb7c 	bl	8001220 <HAL_GetTick>
 8001b28:	4605      	mov	r5, r0
 8001b2a:	4e7c      	ldr	r6, [pc, #496]	; (8001d1c <HAL_RCC_OscConfig+0x294>)
 8001b2c:	6833      	ldr	r3, [r6, #0]
 8001b2e:	f013 0f02 	tst.w	r3, #2
 8001b32:	d175      	bne.n	8001c20 <HAL_RCC_OscConfig+0x198>
 8001b34:	f7ff fb74 	bl	8001220 <HAL_GetTick>
 8001b38:	1b40      	subs	r0, r0, r5
 8001b3a:	2802      	cmp	r0, #2
 8001b3c:	d9f6      	bls.n	8001b2c <HAL_RCC_OscConfig+0xa4>
 8001b3e:	2003      	movs	r0, #3
 8001b40:	e1ad      	b.n	8001e9e <HAL_RCC_OscConfig+0x416>
 8001b42:	4a76      	ldr	r2, [pc, #472]	; (8001d1c <HAL_RCC_OscConfig+0x294>)
 8001b44:	6813      	ldr	r3, [r2, #0]
 8001b46:	f443 3380 	orr.w	r3, r3, #65536	; 0x10000
 8001b4a:	6013      	str	r3, [r2, #0]
 8001b4c:	6863      	ldr	r3, [r4, #4]
 8001b4e:	b343      	cbz	r3, 8001ba2 <HAL_RCC_OscConfig+0x11a>
 8001b50:	f7ff fb66 	bl	8001220 <HAL_GetTick>
 8001b54:	4605      	mov	r5, r0
 8001b56:	4e71      	ldr	r6, [pc, #452]	; (8001d1c <HAL_RCC_OscConfig+0x294>)
 8001b58:	6833      	ldr	r3, [r6, #0]
 8001b5a:	f413 3f00 	tst.w	r3, #131072	; 0x20000
 8001b5e:	d1cb      	bne.n	8001af8 <HAL_RCC_OscConfig+0x70>
 8001b60:	f7ff fb5e 	bl	8001220 <HAL_GetTick>
 8001b64:	1b40      	subs	r0, r0, r5
 8001b66:	2864      	cmp	r0, #100	; 0x64
 8001b68:	d9f6      	bls.n	8001b58 <HAL_RCC_OscConfig+0xd0>
 8001b6a:	2003      	movs	r0, #3
 8001b6c:	e197      	b.n	8001e9e <HAL_RCC_OscConfig+0x416>
 8001b6e:	f5b3 2fa0 	cmp.w	r3, #327680	; 0x50000
 8001b72:	d009      	beq.n	8001b88 <HAL_RCC_OscConfig+0x100>
 8001b74:	4b69      	ldr	r3, [pc, #420]	; (8001d1c <HAL_RCC_OscConfig+0x294>)
 8001b76:	681a      	ldr	r2, [r3, #0]
 8001b78:	f422 3280 	bic.w	r2, r2, #65536	; 0x10000
 8001b7c:	601a      	str	r2, [r3, #0]
 8001b7e:	681a      	ldr	r2, [r3, #0]
 8001b80:	f422 2280 	bic.w	r2, r2, #262144	; 0x40000
 8001b84:	601a      	str	r2, [r3, #0]
 8001b86:	e7e1      	b.n	8001b4c <HAL_RCC_OscConfig+0xc4>
 8001b88:	f103 4380 	add.w	r3, r3, #1073741824	; 0x40000000
 8001b8c:	f5a3 333c 	sub.w	r3, r3, #192512	; 0x2f000
 8001b90:	681a      	ldr	r2, [r3, #0]
 8001b92:	f442 2280 	orr.w	r2, r2, #262144	; 0x40000
 8001b96:	601a      	str	r2, [r3, #0]
 8001b98:	681a      	ldr	r2, [r3, #0]
 8001b9a:	f442 3280 	orr.w	r2, r2, #65536	; 0x10000
 8001b9e:	601a      	str	r2, [r3, #0]
 8001ba0:	e7d4      	b.n	8001b4c <HAL_RCC_OscConfig+0xc4>
 8001ba2:	f7ff fb3d 	bl	8001220 <HAL_GetTick>
 8001ba6:	4605      	mov	r5, r0
 8001ba8:	4e5c      	ldr	r6, [pc, #368]	; (8001d1c <HAL_RCC_OscConfig+0x294>)
 8001baa:	6833      	ldr	r3, [r6, #0]
 8001bac:	f413 3f00 	tst.w	r3, #131072	; 0x20000
 8001bb0:	d0a2      	beq.n	8001af8 <HAL_RCC_OscConfig+0x70>
 8001bb2:	f7ff fb35 	bl	8001220 <HAL_GetTick>
 8001bb6:	1b40      	subs	r0, r0, r5
 8001bb8:	2864      	cmp	r0, #100	; 0x64
 8001bba:	d9f6      	bls.n	8001baa <HAL_RCC_OscConfig+0x122>
 8001bbc:	2003      	movs	r0, #3
 8001bbe:	e16e      	b.n	8001e9e <HAL_RCC_OscConfig+0x416>
 8001bc0:	4b56      	ldr	r3, [pc, #344]	; (8001d1c <HAL_RCC_OscConfig+0x294>)
 8001bc2:	685b      	ldr	r3, [r3, #4]
 8001bc4:	f413 3f80 	tst.w	r3, #65536	; 0x10000
 8001bc8:	d1a5      	bne.n	8001b16 <HAL_RCC_OscConfig+0x8e>
 8001bca:	4b54      	ldr	r3, [pc, #336]	; (8001d1c <HAL_RCC_OscConfig+0x294>)
 8001bcc:	681b      	ldr	r3, [r3, #0]
 8001bce:	f013 0f02 	tst.w	r3, #2
 8001bd2:	d003      	beq.n	8001bdc <HAL_RCC_OscConfig+0x154>
 8001bd4:	6923      	ldr	r3, [r4, #16]
 8001bd6:	2b01      	cmp	r3, #1
 8001bd8:	f040 815e 	bne.w	8001e98 <HAL_RCC_OscConfig+0x410>
 8001bdc:	4a4f      	ldr	r2, [pc, #316]	; (8001d1c <HAL_RCC_OscConfig+0x294>)
 8001bde:	6813      	ldr	r3, [r2, #0]
 8001be0:	6961      	ldr	r1, [r4, #20]
 8001be2:	f023 03f8 	bic.w	r3, r3, #248	; 0xf8
 8001be6:	ea43 03c1 	orr.w	r3, r3, r1, lsl #3
 8001bea:	6013      	str	r3, [r2, #0]
 8001bec:	6823      	ldr	r3, [r4, #0]
 8001bee:	f013 0f08 	tst.w	r3, #8
 8001bf2:	d03d      	beq.n	8001c70 <HAL_RCC_OscConfig+0x1e8>
 8001bf4:	69a3      	ldr	r3, [r4, #24]
 8001bf6:	2b00      	cmp	r3, #0
 8001bf8:	d066      	beq.n	8001cc8 <HAL_RCC_OscConfig+0x240>
 8001bfa:	4b49      	ldr	r3, [pc, #292]	; (8001d20 <HAL_RCC_OscConfig+0x298>)
 8001bfc:	2201      	movs	r2, #1
 8001bfe:	f8c3 2480 	str.w	r2, [r3, #1152]	; 0x480
 8001c02:	f7ff fb0d 	bl	8001220 <HAL_GetTick>
 8001c06:	4605      	mov	r5, r0
 8001c08:	4e44      	ldr	r6, [pc, #272]	; (8001d1c <HAL_RCC_OscConfig+0x294>)
 8001c0a:	6a73      	ldr	r3, [r6, #36]	; 0x24
 8001c0c:	f013 0f02 	tst.w	r3, #2
 8001c10:	d121      	bne.n	8001c56 <HAL_RCC_OscConfig+0x1ce>
 8001c12:	f7ff fb05 	bl	8001220 <HAL_GetTick>
 8001c16:	1b40      	subs	r0, r0, r5
 8001c18:	2802      	cmp	r0, #2
 8001c1a:	d9f6      	bls.n	8001c0a <HAL_RCC_OscConfig+0x182>
 8001c1c:	2003      	movs	r0, #3
 8001c1e:	e13e      	b.n	8001e9e <HAL_RCC_OscConfig+0x416>
 8001c20:	4a3e      	ldr	r2, [pc, #248]	; (8001d1c <HAL_RCC_OscConfig+0x294>)
 8001c22:	6813      	ldr	r3, [r2, #0]
 8001c24:	6961      	ldr	r1, [r4, #20]
 8001c26:	f023 03f8 	bic.w	r3, r3, #248	; 0xf8
 8001c2a:	ea43 03c1 	orr.w	r3, r3, r1, lsl #3
 8001c2e:	6013      	str	r3, [r2, #0]
 8001c30:	e7dc      	b.n	8001bec <HAL_RCC_OscConfig+0x164>
 8001c32:	4b3b      	ldr	r3, [pc, #236]	; (8001d20 <HAL_RCC_OscConfig+0x298>)
 8001c34:	2200      	movs	r2, #0
 8001c36:	601a      	str	r2, [r3, #0]
 8001c38:	f7ff faf2 	bl	8001220 <HAL_GetTick>
 8001c3c:	4605      	mov	r5, r0
 8001c3e:	4e37      	ldr	r6, [pc, #220]	; (8001d1c <HAL_RCC_OscConfig+0x294>)
 8001c40:	6833      	ldr	r3, [r6, #0]
 8001c42:	f013 0f02 	tst.w	r3, #2
 8001c46:	d0d1      	beq.n	8001bec <HAL_RCC_OscConfig+0x164>
 8001c48:	f7ff faea 	bl	8001220 <HAL_GetTick>
 8001c4c:	1b40      	subs	r0, r0, r5
 8001c4e:	2802      	cmp	r0, #2
 8001c50:	d9f6      	bls.n	8001c40 <HAL_RCC_OscConfig+0x1b8>
 8001c52:	2003      	movs	r0, #3
 8001c54:	e123      	b.n	8001e9e <HAL_RCC_OscConfig+0x416>
 8001c56:	4b33      	ldr	r3, [pc, #204]	; (8001d24 <HAL_RCC_OscConfig+0x29c>)
 8001c58:	681b      	ldr	r3, [r3, #0]
 8001c5a:	4a33      	ldr	r2, [pc, #204]	; (8001d28 <HAL_RCC_OscConfig+0x2a0>)
 8001c5c:	fba2 2303 	umull	r2, r3, r2, r3
 8001c60:	0a5b      	lsrs	r3, r3, #9
 8001c62:	9301      	str	r3, [sp, #4]
 8001c64:	bf00      	nop
 8001c66:	9b01      	ldr	r3, [sp, #4]
 8001c68:	1e5a      	subs	r2, r3, #1
 8001c6a:	9201      	str	r2, [sp, #4]
 8001c6c:	2b00      	cmp	r3, #0
 8001c6e:	d1f9      	bne.n	8001c64 <HAL_RCC_OscConfig+0x1dc>
 8001c70:	6823      	ldr	r3, [r4, #0]
 8001c72:	f013 0f04 	tst.w	r3, #4
 8001c76:	f000 809b 	beq.w	8001db0 <HAL_RCC_OscConfig+0x328>
 8001c7a:	4b28      	ldr	r3, [pc, #160]	; (8001d1c <HAL_RCC_OscConfig+0x294>)
 8001c7c:	69db      	ldr	r3, [r3, #28]
 8001c7e:	f013 5f80 	tst.w	r3, #268435456	; 0x10000000
 8001c82:	d134      	bne.n	8001cee <HAL_RCC_OscConfig+0x266>
 8001c84:	4b25      	ldr	r3, [pc, #148]	; (8001d1c <HAL_RCC_OscConfig+0x294>)
 8001c86:	69da      	ldr	r2, [r3, #28]
 8001c88:	f042 5280 	orr.w	r2, r2, #268435456	; 0x10000000
 8001c8c:	61da      	str	r2, [r3, #28]
 8001c8e:	69db      	ldr	r3, [r3, #28]
 8001c90:	f003 5380 	and.w	r3, r3, #268435456	; 0x10000000
 8001c94:	9300      	str	r3, [sp, #0]
 8001c96:	9b00      	ldr	r3, [sp, #0]
 8001c98:	2501      	movs	r5, #1
 8001c9a:	4b24      	ldr	r3, [pc, #144]	; (8001d2c <HAL_RCC_OscConfig+0x2a4>)
 8001c9c:	681b      	ldr	r3, [r3, #0]
 8001c9e:	f413 7f80 	tst.w	r3, #256	; 0x100
 8001ca2:	d026      	beq.n	8001cf2 <HAL_RCC_OscConfig+0x26a>
 8001ca4:	68e3      	ldr	r3, [r4, #12]
 8001ca6:	2b01      	cmp	r3, #1
 8001ca8:	d042      	beq.n	8001d30 <HAL_RCC_OscConfig+0x2a8>
 8001caa:	2b00      	cmp	r3, #0
 8001cac:	d158      	bne.n	8001d60 <HAL_RCC_OscConfig+0x2d8>
 8001cae:	f103 4380 	add.w	r3, r3, #1073741824	; 0x40000000
 8001cb2:	f503 3304 	add.w	r3, r3, #135168	; 0x21000
 8001cb6:	6a1a      	ldr	r2, [r3, #32]
 8001cb8:	f022 0201 	bic.w	r2, r2, #1
 8001cbc:	621a      	str	r2, [r3, #32]
 8001cbe:	6a1a      	ldr	r2, [r3, #32]
 8001cc0:	f022 0204 	bic.w	r2, r2, #4
 8001cc4:	621a      	str	r2, [r3, #32]
 8001cc6:	e038      	b.n	8001d3a <HAL_RCC_OscConfig+0x2b2>
 8001cc8:	4b15      	ldr	r3, [pc, #84]	; (8001d20 <HAL_RCC_OscConfig+0x298>)
 8001cca:	2200      	movs	r2, #0
 8001ccc:	f8c3 2480 	str.w	r2, [r3, #1152]	; 0x480
 8001cd0:	f7ff faa6 	bl	8001220 <HAL_GetTick>
 8001cd4:	4605      	mov	r5, r0
 8001cd6:	4e11      	ldr	r6, [pc, #68]	; (8001d1c <HAL_RCC_OscConfig+0x294>)
 8001cd8:	6a73      	ldr	r3, [r6, #36]	; 0x24
 8001cda:	f013 0f02 	tst.w	r3, #2
 8001cde:	d0c7      	beq.n	8001c70 <HAL_RCC_OscConfig+0x1e8>
 8001ce0:	f7ff fa9e 	bl	8001220 <HAL_GetTick>
 8001ce4:	1b40      	subs	r0, r0, r5
 8001ce6:	2802      	cmp	r0, #2
 8001ce8:	d9f6      	bls.n	8001cd8 <HAL_RCC_OscConfig+0x250>
 8001cea:	2003      	movs	r0, #3
 8001cec:	e0d7      	b.n	8001e9e <HAL_RCC_OscConfig+0x416>
 8001cee:	2500      	movs	r5, #0
 8001cf0:	e7d3      	b.n	8001c9a <HAL_RCC_OscConfig+0x212>
 8001cf2:	4a0e      	ldr	r2, [pc, #56]	; (8001d2c <HAL_RCC_OscConfig+0x2a4>)
 8001cf4:	6813      	ldr	r3, [r2, #0]
 8001cf6:	f443 7380 	orr.w	r3, r3, #256	; 0x100
 8001cfa:	6013      	str	r3, [r2, #0]
 8001cfc:	f7ff fa90 	bl	8001220 <HAL_GetTick>
 8001d00:	4606      	mov	r6, r0
 8001d02:	4f0a      	ldr	r7, [pc, #40]	; (8001d2c <HAL_RCC_OscConfig+0x2a4>)
 8001d04:	683b      	ldr	r3, [r7, #0]
 8001d06:	f413 7f80 	tst.w	r3, #256	; 0x100
 8001d0a:	d1cb      	bne.n	8001ca4 <HAL_RCC_OscConfig+0x21c>
 8001d0c:	f7ff fa88 	bl	8001220 <HAL_GetTick>
 8001d10:	1b80      	subs	r0, r0, r6
 8001d12:	2864      	cmp	r0, #100	; 0x64
 8001d14:	d9f6      	bls.n	8001d04 <HAL_RCC_OscConfig+0x27c>
 8001d16:	2003      	movs	r0, #3
 8001d18:	e0c1      	b.n	8001e9e <HAL_RCC_OscConfig+0x416>
 8001d1a:	bf00      	nop
 8001d1c:	40021000 	.word	0x40021000
 8001d20:	42420000 	.word	0x42420000
 8001d24:	20000000 	.word	0x20000000
 8001d28:	10624dd3 	.word	0x10624dd3
 8001d2c:	40007000 	.word	0x40007000
 8001d30:	4a5e      	ldr	r2, [pc, #376]	; (8001eac <HAL_RCC_OscConfig+0x424>)
 8001d32:	6a13      	ldr	r3, [r2, #32]
 8001d34:	f043 0301 	orr.w	r3, r3, #1
 8001d38:	6213      	str	r3, [r2, #32]
 8001d3a:	68e3      	ldr	r3, [r4, #12]
 8001d3c:	b333      	cbz	r3, 8001d8c <HAL_RCC_OscConfig+0x304>
 8001d3e:	f7ff fa6f 	bl	8001220 <HAL_GetTick>
 8001d42:	4606      	mov	r6, r0
 8001d44:	4f59      	ldr	r7, [pc, #356]	; (8001eac <HAL_RCC_OscConfig+0x424>)
 8001d46:	f241 3888 	movw	r8, #5000	; 0x1388
 8001d4a:	6a3b      	ldr	r3, [r7, #32]
 8001d4c:	f013 0f02 	tst.w	r3, #2
 8001d50:	d12d      	bne.n	8001dae <HAL_RCC_OscConfig+0x326>
 8001d52:	f7ff fa65 	bl	8001220 <HAL_GetTick>
 8001d56:	1b80      	subs	r0, r0, r6
 8001d58:	4540      	cmp	r0, r8
 8001d5a:	d9f6      	bls.n	8001d4a <HAL_RCC_OscConfig+0x2c2>
 8001d5c:	2003      	movs	r0, #3
 8001d5e:	e09e      	b.n	8001e9e <HAL_RCC_OscConfig+0x416>
 8001d60:	2b05      	cmp	r3, #5
 8001d62:	d009      	beq.n	8001d78 <HAL_RCC_OscConfig+0x2f0>
 8001d64:	4b51      	ldr	r3, [pc, #324]	; (8001eac <HAL_RCC_OscConfig+0x424>)
 8001d66:	6a1a      	ldr	r2, [r3, #32]
 8001d68:	f022 0201 	bic.w	r2, r2, #1
 8001d6c:	621a      	str	r2, [r3, #32]
 8001d6e:	6a1a      	ldr	r2, [r3, #32]
 8001d70:	f022 0204 	bic.w	r2, r2, #4
 8001d74:	621a      	str	r2, [r3, #32]
 8001d76:	e7e0      	b.n	8001d3a <HAL_RCC_OscConfig+0x2b2>
 8001d78:	4b4c      	ldr	r3, [pc, #304]	; (8001eac <HAL_RCC_OscConfig+0x424>)
 8001d7a:	6a1a      	ldr	r2, [r3, #32]
 8001d7c:	f042 0204 	orr.w	r2, r2, #4
 8001d80:	621a      	str	r2, [r3, #32]
 8001d82:	6a1a      	ldr	r2, [r3, #32]
 8001d84:	f042 0201 	orr.w	r2, r2, #1
 8001d88:	621a      	str	r2, [r3, #32]
 8001d8a:	e7d6      	b.n	8001d3a <HAL_RCC_OscConfig+0x2b2>
 8001d8c:	f7ff fa48 	bl	8001220 <HAL_GetTick>
 8001d90:	4606      	mov	r6, r0
 8001d92:	4f46      	ldr	r7, [pc, #280]	; (8001eac <HAL_RCC_OscConfig+0x424>)
 8001d94:	f241 3888 	movw	r8, #5000	; 0x1388
 8001d98:	6a3b      	ldr	r3, [r7, #32]
 8001d9a:	f013 0f02 	tst.w	r3, #2
 8001d9e:	d006      	beq.n	8001dae <HAL_RCC_OscConfig+0x326>
 8001da0:	f7ff fa3e 	bl	8001220 <HAL_GetTick>
 8001da4:	1b80      	subs	r0, r0, r6
 8001da6:	4540      	cmp	r0, r8
 8001da8:	d9f6      	bls.n	8001d98 <HAL_RCC_OscConfig+0x310>
 8001daa:	2003      	movs	r0, #3
 8001dac:	e077      	b.n	8001e9e <HAL_RCC_OscConfig+0x416>
 8001dae:	b9e5      	cbnz	r5, 8001dea <HAL_RCC_OscConfig+0x362>
 8001db0:	69e3      	ldr	r3, [r4, #28]
 8001db2:	2b00      	cmp	r3, #0
 8001db4:	d072      	beq.n	8001e9c <HAL_RCC_OscConfig+0x414>
 8001db6:	4a3d      	ldr	r2, [pc, #244]	; (8001eac <HAL_RCC_OscConfig+0x424>)
 8001db8:	6852      	ldr	r2, [r2, #4]
 8001dba:	f002 020c 	and.w	r2, r2, #12
 8001dbe:	2a08      	cmp	r2, #8
 8001dc0:	d056      	beq.n	8001e70 <HAL_RCC_OscConfig+0x3e8>
 8001dc2:	2b02      	cmp	r3, #2
 8001dc4:	d017      	beq.n	8001df6 <HAL_RCC_OscConfig+0x36e>
 8001dc6:	4b3a      	ldr	r3, [pc, #232]	; (8001eb0 <HAL_RCC_OscConfig+0x428>)
 8001dc8:	2200      	movs	r2, #0
 8001dca:	661a      	str	r2, [r3, #96]	; 0x60
 8001dcc:	f7ff fa28 	bl	8001220 <HAL_GetTick>
 8001dd0:	4604      	mov	r4, r0
 8001dd2:	4d36      	ldr	r5, [pc, #216]	; (8001eac <HAL_RCC_OscConfig+0x424>)
 8001dd4:	682b      	ldr	r3, [r5, #0]
 8001dd6:	f013 7f00 	tst.w	r3, #33554432	; 0x2000000
 8001dda:	d047      	beq.n	8001e6c <HAL_RCC_OscConfig+0x3e4>
 8001ddc:	f7ff fa20 	bl	8001220 <HAL_GetTick>
 8001de0:	1b00      	subs	r0, r0, r4
 8001de2:	2802      	cmp	r0, #2
 8001de4:	d9f6      	bls.n	8001dd4 <HAL_RCC_OscConfig+0x34c>
 8001de6:	2003      	movs	r0, #3
 8001de8:	e059      	b.n	8001e9e <HAL_RCC_OscConfig+0x416>
 8001dea:	4a30      	ldr	r2, [pc, #192]	; (8001eac <HAL_RCC_OscConfig+0x424>)
 8001dec:	69d3      	ldr	r3, [r2, #28]
 8001dee:	f023 5380 	bic.w	r3, r3, #268435456	; 0x10000000
 8001df2:	61d3      	str	r3, [r2, #28]
 8001df4:	e7dc      	b.n	8001db0 <HAL_RCC_OscConfig+0x328>
 8001df6:	4b2e      	ldr	r3, [pc, #184]	; (8001eb0 <HAL_RCC_OscConfig+0x428>)
 8001df8:	2200      	movs	r2, #0
 8001dfa:	661a      	str	r2, [r3, #96]	; 0x60
 8001dfc:	f7ff fa10 	bl	8001220 <HAL_GetTick>
 8001e00:	4605      	mov	r5, r0
 8001e02:	4e2a      	ldr	r6, [pc, #168]	; (8001eac <HAL_RCC_OscConfig+0x424>)
 8001e04:	6833      	ldr	r3, [r6, #0]
 8001e06:	f013 7f00 	tst.w	r3, #33554432	; 0x2000000
 8001e0a:	d006      	beq.n	8001e1a <HAL_RCC_OscConfig+0x392>
 8001e0c:	f7ff fa08 	bl	8001220 <HAL_GetTick>
 8001e10:	1b40      	subs	r0, r0, r5
 8001e12:	2802      	cmp	r0, #2
 8001e14:	d9f6      	bls.n	8001e04 <HAL_RCC_OscConfig+0x37c>
 8001e16:	2003      	movs	r0, #3
 8001e18:	e041      	b.n	8001e9e <HAL_RCC_OscConfig+0x416>
 8001e1a:	6a23      	ldr	r3, [r4, #32]
 8001e1c:	f5b3 3f80 	cmp.w	r3, #65536	; 0x10000
 8001e20:	d01a      	beq.n	8001e58 <HAL_RCC_OscConfig+0x3d0>
 8001e22:	4922      	ldr	r1, [pc, #136]	; (8001eac <HAL_RCC_OscConfig+0x424>)
 8001e24:	684a      	ldr	r2, [r1, #4]
 8001e26:	6a23      	ldr	r3, [r4, #32]
 8001e28:	6a60      	ldr	r0, [r4, #36]	; 0x24
 8001e2a:	4303      	orrs	r3, r0
 8001e2c:	f422 1274 	bic.w	r2, r2, #3997696	; 0x3d0000
 8001e30:	4313      	orrs	r3, r2
 8001e32:	604b      	str	r3, [r1, #4]
 8001e34:	4b1e      	ldr	r3, [pc, #120]	; (8001eb0 <HAL_RCC_OscConfig+0x428>)
 8001e36:	2201      	movs	r2, #1
 8001e38:	661a      	str	r2, [r3, #96]	; 0x60
 8001e3a:	f7ff f9f1 	bl	8001220 <HAL_GetTick>
 8001e3e:	4604      	mov	r4, r0
 8001e40:	4d1a      	ldr	r5, [pc, #104]	; (8001eac <HAL_RCC_OscConfig+0x424>)
 8001e42:	682b      	ldr	r3, [r5, #0]
 8001e44:	f013 7f00 	tst.w	r3, #33554432	; 0x2000000
 8001e48:	d10e      	bne.n	8001e68 <HAL_RCC_OscConfig+0x3e0>
 8001e4a:	f7ff f9e9 	bl	8001220 <HAL_GetTick>
 8001e4e:	1b00      	subs	r0, r0, r4
 8001e50:	2802      	cmp	r0, #2
 8001e52:	d9f6      	bls.n	8001e42 <HAL_RCC_OscConfig+0x3ba>
 8001e54:	2003      	movs	r0, #3
 8001e56:	e022      	b.n	8001e9e <HAL_RCC_OscConfig+0x416>
 8001e58:	4a14      	ldr	r2, [pc, #80]	; (8001eac <HAL_RCC_OscConfig+0x424>)
 8001e5a:	6853      	ldr	r3, [r2, #4]
 8001e5c:	f423 3300 	bic.w	r3, r3, #131072	; 0x20000
 8001e60:	68a1      	ldr	r1, [r4, #8]
 8001e62:	430b      	orrs	r3, r1
 8001e64:	6053      	str	r3, [r2, #4]
 8001e66:	e7dc      	b.n	8001e22 <HAL_RCC_OscConfig+0x39a>
 8001e68:	2000      	movs	r0, #0
 8001e6a:	e018      	b.n	8001e9e <HAL_RCC_OscConfig+0x416>
 8001e6c:	2000      	movs	r0, #0
 8001e6e:	e016      	b.n	8001e9e <HAL_RCC_OscConfig+0x416>
 8001e70:	2b01      	cmp	r3, #1
 8001e72:	d017      	beq.n	8001ea4 <HAL_RCC_OscConfig+0x41c>
 8001e74:	4b0d      	ldr	r3, [pc, #52]	; (8001eac <HAL_RCC_OscConfig+0x424>)
 8001e76:	685b      	ldr	r3, [r3, #4]
 8001e78:	f403 3180 	and.w	r1, r3, #65536	; 0x10000
 8001e7c:	6a22      	ldr	r2, [r4, #32]
 8001e7e:	4291      	cmp	r1, r2
 8001e80:	d112      	bne.n	8001ea8 <HAL_RCC_OscConfig+0x420>
 8001e82:	f403 1370 	and.w	r3, r3, #3932160	; 0x3c0000
 8001e86:	6a60      	ldr	r0, [r4, #36]	; 0x24
 8001e88:	1a18      	subs	r0, r3, r0
 8001e8a:	bf18      	it	ne
 8001e8c:	2001      	movne	r0, #1
 8001e8e:	e006      	b.n	8001e9e <HAL_RCC_OscConfig+0x416>
 8001e90:	2001      	movs	r0, #1
 8001e92:	4770      	bx	lr
 8001e94:	2001      	movs	r0, #1
 8001e96:	e002      	b.n	8001e9e <HAL_RCC_OscConfig+0x416>
 8001e98:	2001      	movs	r0, #1
 8001e9a:	e000      	b.n	8001e9e <HAL_RCC_OscConfig+0x416>
 8001e9c:	2000      	movs	r0, #0
 8001e9e:	b002      	add	sp, #8
 8001ea0:	e8bd 81f0 	ldmia.w	sp!, {r4, r5, r6, r7, r8, pc}
 8001ea4:	2001      	movs	r0, #1
 8001ea6:	e7fa      	b.n	8001e9e <HAL_RCC_OscConfig+0x416>
 8001ea8:	2001      	movs	r0, #1
 8001eaa:	e7f8      	b.n	8001e9e <HAL_RCC_OscConfig+0x416>
 8001eac:	40021000 	.word	0x40021000
 8001eb0:	42420000 	.word	0x42420000

08001eb4 <HAL_RCC_GetSysClockFreq>:
 8001eb4:	4b11      	ldr	r3, [pc, #68]	; (8001efc <HAL_RCC_GetSysClockFreq+0x48>)
 8001eb6:	685a      	ldr	r2, [r3, #4]
 8001eb8:	f002 030c 	and.w	r3, r2, #12
 8001ebc:	2b04      	cmp	r3, #4
 8001ebe:	d018      	beq.n	8001ef2 <HAL_RCC_GetSysClockFreq+0x3e>
 8001ec0:	2b08      	cmp	r3, #8
 8001ec2:	d118      	bne.n	8001ef6 <HAL_RCC_GetSysClockFreq+0x42>
 8001ec4:	f3c2 4383 	ubfx	r3, r2, #18, #4
 8001ec8:	490d      	ldr	r1, [pc, #52]	; (8001f00 <HAL_RCC_GetSysClockFreq+0x4c>)
 8001eca:	5cc8      	ldrb	r0, [r1, r3]
 8001ecc:	f412 3f80 	tst.w	r2, #65536	; 0x10000
 8001ed0:	d00b      	beq.n	8001eea <HAL_RCC_GetSysClockFreq+0x36>
 8001ed2:	4b0a      	ldr	r3, [pc, #40]	; (8001efc <HAL_RCC_GetSysClockFreq+0x48>)
 8001ed4:	685b      	ldr	r3, [r3, #4]
 8001ed6:	4a0b      	ldr	r2, [pc, #44]	; (8001f04 <HAL_RCC_GetSysClockFreq+0x50>)
 8001ed8:	fb02 f000 	mul.w	r0, r2, r0
 8001edc:	f3c3 4340 	ubfx	r3, r3, #17, #1
 8001ee0:	4a09      	ldr	r2, [pc, #36]	; (8001f08 <HAL_RCC_GetSysClockFreq+0x54>)
 8001ee2:	5cd3      	ldrb	r3, [r2, r3]
 8001ee4:	fbb0 f0f3 	udiv	r0, r0, r3
 8001ee8:	4770      	bx	lr
 8001eea:	4b08      	ldr	r3, [pc, #32]	; (8001f0c <HAL_RCC_GetSysClockFreq+0x58>)
 8001eec:	fb03 f000 	mul.w	r0, r3, r0
 8001ef0:	4770      	bx	lr
 8001ef2:	4804      	ldr	r0, [pc, #16]	; (8001f04 <HAL_RCC_GetSysClockFreq+0x50>)
 8001ef4:	4770      	bx	lr
 8001ef6:	4806      	ldr	r0, [pc, #24]	; (8001f10 <HAL_RCC_GetSysClockFreq+0x5c>)
 8001ef8:	4770      	bx	lr
 8001efa:	bf00      	nop
 8001efc:	40021000 	.word	0x40021000
 8001f00:	08003f98 	.word	0x08003f98
 8001f04:	00f42400 	.word	0x00f42400
 8001f08:	08003fa8 	.word	0x08003fa8
 8001f0c:	003d0900 	.word	0x003d0900
 8001f10:	007a1200 	.word	0x007a1200

08001f14 <HAL_RCC_ClockConfig>:
 8001f14:	2800      	cmp	r0, #0
 8001f16:	f000 80a2 	beq.w	800205e <HAL_RCC_ClockConfig+0x14a>
 8001f1a:	e92d 41f0 	stmdb	sp!, {r4, r5, r6, r7, r8, lr}
 8001f1e:	460d      	mov	r5, r1
 8001f20:	4604      	mov	r4, r0
 8001f22:	4b53      	ldr	r3, [pc, #332]	; (8002070 <HAL_RCC_ClockConfig+0x15c>)
 8001f24:	681b      	ldr	r3, [r3, #0]
 8001f26:	f003 0307 	and.w	r3, r3, #7
 8001f2a:	428b      	cmp	r3, r1
 8001f2c:	d20b      	bcs.n	8001f46 <HAL_RCC_ClockConfig+0x32>
 8001f2e:	4a50      	ldr	r2, [pc, #320]	; (8002070 <HAL_RCC_ClockConfig+0x15c>)
 8001f30:	6813      	ldr	r3, [r2, #0]
 8001f32:	f023 0307 	bic.w	r3, r3, #7
 8001f36:	430b      	orrs	r3, r1
 8001f38:	6013      	str	r3, [r2, #0]
 8001f3a:	6813      	ldr	r3, [r2, #0]
 8001f3c:	f003 0307 	and.w	r3, r3, #7
 8001f40:	428b      	cmp	r3, r1
 8001f42:	f040 808e 	bne.w	8002062 <HAL_RCC_ClockConfig+0x14e>
 8001f46:	6823      	ldr	r3, [r4, #0]
 8001f48:	f013 0f02 	tst.w	r3, #2
 8001f4c:	d017      	beq.n	8001f7e <HAL_RCC_ClockConfig+0x6a>
 8001f4e:	f013 0f04 	tst.w	r3, #4
 8001f52:	d004      	beq.n	8001f5e <HAL_RCC_ClockConfig+0x4a>
 8001f54:	4a47      	ldr	r2, [pc, #284]	; (8002074 <HAL_RCC_ClockConfig+0x160>)
 8001f56:	6853      	ldr	r3, [r2, #4]
 8001f58:	f443 63e0 	orr.w	r3, r3, #1792	; 0x700
 8001f5c:	6053      	str	r3, [r2, #4]
 8001f5e:	6823      	ldr	r3, [r4, #0]
 8001f60:	f013 0f08 	tst.w	r3, #8
 8001f64:	d004      	beq.n	8001f70 <HAL_RCC_ClockConfig+0x5c>
 8001f66:	4a43      	ldr	r2, [pc, #268]	; (8002074 <HAL_RCC_ClockConfig+0x160>)
 8001f68:	6853      	ldr	r3, [r2, #4]
 8001f6a:	f443 5360 	orr.w	r3, r3, #14336	; 0x3800
 8001f6e:	6053      	str	r3, [r2, #4]
 8001f70:	4a40      	ldr	r2, [pc, #256]	; (8002074 <HAL_RCC_ClockConfig+0x160>)
 8001f72:	6853      	ldr	r3, [r2, #4]
 8001f74:	f023 03f0 	bic.w	r3, r3, #240	; 0xf0
 8001f78:	68a1      	ldr	r1, [r4, #8]
 8001f7a:	430b      	orrs	r3, r1
 8001f7c:	6053      	str	r3, [r2, #4]
 8001f7e:	6823      	ldr	r3, [r4, #0]
 8001f80:	f013 0f01 	tst.w	r3, #1
 8001f84:	d031      	beq.n	8001fea <HAL_RCC_ClockConfig+0xd6>
 8001f86:	6862      	ldr	r2, [r4, #4]
 8001f88:	2a01      	cmp	r2, #1
 8001f8a:	d020      	beq.n	8001fce <HAL_RCC_ClockConfig+0xba>
 8001f8c:	2a02      	cmp	r2, #2
 8001f8e:	d025      	beq.n	8001fdc <HAL_RCC_ClockConfig+0xc8>
 8001f90:	4b38      	ldr	r3, [pc, #224]	; (8002074 <HAL_RCC_ClockConfig+0x160>)
 8001f92:	681b      	ldr	r3, [r3, #0]
 8001f94:	f013 0f02 	tst.w	r3, #2
 8001f98:	d065      	beq.n	8002066 <HAL_RCC_ClockConfig+0x152>
 8001f9a:	4936      	ldr	r1, [pc, #216]	; (8002074 <HAL_RCC_ClockConfig+0x160>)
 8001f9c:	684b      	ldr	r3, [r1, #4]
 8001f9e:	f023 0303 	bic.w	r3, r3, #3
 8001fa2:	4313      	orrs	r3, r2
 8001fa4:	604b      	str	r3, [r1, #4]
 8001fa6:	f7ff f93b 	bl	8001220 <HAL_GetTick>
 8001faa:	4606      	mov	r6, r0
 8001fac:	4f31      	ldr	r7, [pc, #196]	; (8002074 <HAL_RCC_ClockConfig+0x160>)
 8001fae:	f241 3888 	movw	r8, #5000	; 0x1388
 8001fb2:	687b      	ldr	r3, [r7, #4]
 8001fb4:	f003 030c 	and.w	r3, r3, #12
 8001fb8:	6862      	ldr	r2, [r4, #4]
 8001fba:	ebb3 0f82 	cmp.w	r3, r2, lsl #2
 8001fbe:	d014      	beq.n	8001fea <HAL_RCC_ClockConfig+0xd6>
 8001fc0:	f7ff f92e 	bl	8001220 <HAL_GetTick>
 8001fc4:	1b80      	subs	r0, r0, r6
 8001fc6:	4540      	cmp	r0, r8
 8001fc8:	d9f3      	bls.n	8001fb2 <HAL_RCC_ClockConfig+0x9e>
 8001fca:	2003      	movs	r0, #3
 8001fcc:	e045      	b.n	800205a <HAL_RCC_ClockConfig+0x146>
 8001fce:	4b29      	ldr	r3, [pc, #164]	; (8002074 <HAL_RCC_ClockConfig+0x160>)
 8001fd0:	681b      	ldr	r3, [r3, #0]
 8001fd2:	f413 3f00 	tst.w	r3, #131072	; 0x20000
 8001fd6:	d1e0      	bne.n	8001f9a <HAL_RCC_ClockConfig+0x86>
 8001fd8:	2001      	movs	r0, #1
 8001fda:	e03e      	b.n	800205a <HAL_RCC_ClockConfig+0x146>
 8001fdc:	4b25      	ldr	r3, [pc, #148]	; (8002074 <HAL_RCC_ClockConfig+0x160>)
 8001fde:	681b      	ldr	r3, [r3, #0]
 8001fe0:	f013 7f00 	tst.w	r3, #33554432	; 0x2000000
 8001fe4:	d1d9      	bne.n	8001f9a <HAL_RCC_ClockConfig+0x86>
 8001fe6:	2001      	movs	r0, #1
 8001fe8:	e037      	b.n	800205a <HAL_RCC_ClockConfig+0x146>
 8001fea:	4b21      	ldr	r3, [pc, #132]	; (8002070 <HAL_RCC_ClockConfig+0x15c>)
 8001fec:	681b      	ldr	r3, [r3, #0]
 8001fee:	f003 0307 	and.w	r3, r3, #7
 8001ff2:	42ab      	cmp	r3, r5
 8001ff4:	d90a      	bls.n	800200c <HAL_RCC_ClockConfig+0xf8>
 8001ff6:	4a1e      	ldr	r2, [pc, #120]	; (8002070 <HAL_RCC_ClockConfig+0x15c>)
 8001ff8:	6813      	ldr	r3, [r2, #0]
 8001ffa:	f023 0307 	bic.w	r3, r3, #7
 8001ffe:	432b      	orrs	r3, r5
 8002000:	6013      	str	r3, [r2, #0]
 8002002:	6813      	ldr	r3, [r2, #0]
 8002004:	f003 0307 	and.w	r3, r3, #7
 8002008:	42ab      	cmp	r3, r5
 800200a:	d12e      	bne.n	800206a <HAL_RCC_ClockConfig+0x156>
 800200c:	6823      	ldr	r3, [r4, #0]
 800200e:	f013 0f04 	tst.w	r3, #4
 8002012:	d006      	beq.n	8002022 <HAL_RCC_ClockConfig+0x10e>
 8002014:	4a17      	ldr	r2, [pc, #92]	; (8002074 <HAL_RCC_ClockConfig+0x160>)
 8002016:	6853      	ldr	r3, [r2, #4]
 8002018:	f423 63e0 	bic.w	r3, r3, #1792	; 0x700
 800201c:	68e1      	ldr	r1, [r4, #12]
 800201e:	430b      	orrs	r3, r1
 8002020:	6053      	str	r3, [r2, #4]
 8002022:	6823      	ldr	r3, [r4, #0]
 8002024:	f013 0f08 	tst.w	r3, #8
 8002028:	d007      	beq.n	800203a <HAL_RCC_ClockConfig+0x126>
 800202a:	4a12      	ldr	r2, [pc, #72]	; (8002074 <HAL_RCC_ClockConfig+0x160>)
 800202c:	6853      	ldr	r3, [r2, #4]
 800202e:	6921      	ldr	r1, [r4, #16]
 8002030:	f423 5360 	bic.w	r3, r3, #14336	; 0x3800
 8002034:	ea43 03c1 	orr.w	r3, r3, r1, lsl #3
 8002038:	6053      	str	r3, [r2, #4]
 800203a:	f7ff ff3b 	bl	8001eb4 <HAL_RCC_GetSysClockFreq>
 800203e:	4b0d      	ldr	r3, [pc, #52]	; (8002074 <HAL_RCC_ClockConfig+0x160>)
 8002040:	685b      	ldr	r3, [r3, #4]
 8002042:	f3c3 1303 	ubfx	r3, r3, #4, #4
 8002046:	4a0c      	ldr	r2, [pc, #48]	; (8002078 <HAL_RCC_ClockConfig+0x164>)
 8002048:	5cd3      	ldrb	r3, [r2, r3]
 800204a:	40d8      	lsrs	r0, r3
 800204c:	4b0b      	ldr	r3, [pc, #44]	; (800207c <HAL_RCC_ClockConfig+0x168>)
 800204e:	6018      	str	r0, [r3, #0]
 8002050:	4b0b      	ldr	r3, [pc, #44]	; (8002080 <HAL_RCC_ClockConfig+0x16c>)
 8002052:	6818      	ldr	r0, [r3, #0]
 8002054:	f7ff f8a0 	bl	8001198 <HAL_InitTick>
 8002058:	2000      	movs	r0, #0
 800205a:	e8bd 81f0 	ldmia.w	sp!, {r4, r5, r6, r7, r8, pc}
 800205e:	2001      	movs	r0, #1
 8002060:	4770      	bx	lr
 8002062:	2001      	movs	r0, #1
 8002064:	e7f9      	b.n	800205a <HAL_RCC_ClockConfig+0x146>
 8002066:	2001      	movs	r0, #1
 8002068:	e7f7      	b.n	800205a <HAL_RCC_ClockConfig+0x146>
 800206a:	2001      	movs	r0, #1
 800206c:	e7f5      	b.n	800205a <HAL_RCC_ClockConfig+0x146>
 800206e:	bf00      	nop
 8002070:	40022000 	.word	0x40022000
 8002074:	40021000 	.word	0x40021000
 8002078:	08003f80 	.word	0x08003f80
 800207c:	20000000 	.word	0x20000000
 8002080:	20000008 	.word	0x20000008

08002084 <HAL_RCC_GetPCLK1Freq>:
 8002084:	4b04      	ldr	r3, [pc, #16]	; (8002098 <HAL_RCC_GetPCLK1Freq+0x14>)
 8002086:	685b      	ldr	r3, [r3, #4]
 8002088:	f3c3 2302 	ubfx	r3, r3, #8, #3
 800208c:	4a03      	ldr	r2, [pc, #12]	; (800209c <HAL_RCC_GetPCLK1Freq+0x18>)
 800208e:	5cd3      	ldrb	r3, [r2, r3]
 8002090:	4a03      	ldr	r2, [pc, #12]	; (80020a0 <HAL_RCC_GetPCLK1Freq+0x1c>)
 8002092:	6810      	ldr	r0, [r2, #0]
 8002094:	40d8      	lsrs	r0, r3
 8002096:	4770      	bx	lr
 8002098:	40021000 	.word	0x40021000
 800209c:	08003f90 	.word	0x08003f90
 80020a0:	20000000 	.word	0x20000000

080020a4 <HAL_RCC_GetPCLK2Freq>:
 80020a4:	4b04      	ldr	r3, [pc, #16]	; (80020b8 <HAL_RCC_GetPCLK2Freq+0x14>)
 80020a6:	685b      	ldr	r3, [r3, #4]
 80020a8:	f3c3 23c2 	ubfx	r3, r3, #11, #3
 80020ac:	4a03      	ldr	r2, [pc, #12]	; (80020bc <HAL_RCC_GetPCLK2Freq+0x18>)
 80020ae:	5cd3      	ldrb	r3, [r2, r3]
 80020b0:	4a03      	ldr	r2, [pc, #12]	; (80020c0 <HAL_RCC_GetPCLK2Freq+0x1c>)
 80020b2:	6810      	ldr	r0, [r2, #0]
 80020b4:	40d8      	lsrs	r0, r3
 80020b6:	4770      	bx	lr
 80020b8:	40021000 	.word	0x40021000
 80020bc:	08003f90 	.word	0x08003f90
 80020c0:	20000000 	.word	0x20000000

080020c4 <HAL_RCCEx_PeriphCLKConfig>:
 80020c4:	e92d 41f0 	stmdb	sp!, {r4, r5, r6, r7, r8, lr}
 80020c8:	b082      	sub	sp, #8
 80020ca:	4604      	mov	r4, r0
 80020cc:	6803      	ldr	r3, [r0, #0]
 80020ce:	f013 0f01 	tst.w	r3, #1
 80020d2:	d036      	beq.n	8002142 <HAL_RCCEx_PeriphCLKConfig+0x7e>
 80020d4:	4b3f      	ldr	r3, [pc, #252]	; (80021d4 <HAL_RCCEx_PeriphCLKConfig+0x110>)
 80020d6:	69db      	ldr	r3, [r3, #28]
 80020d8:	f013 5f80 	tst.w	r3, #268435456	; 0x10000000
 80020dc:	d149      	bne.n	8002172 <HAL_RCCEx_PeriphCLKConfig+0xae>
 80020de:	4b3d      	ldr	r3, [pc, #244]	; (80021d4 <HAL_RCCEx_PeriphCLKConfig+0x110>)
 80020e0:	69da      	ldr	r2, [r3, #28]
 80020e2:	f042 5280 	orr.w	r2, r2, #268435456	; 0x10000000
 80020e6:	61da      	str	r2, [r3, #28]
 80020e8:	69db      	ldr	r3, [r3, #28]
 80020ea:	f003 5380 	and.w	r3, r3, #268435456	; 0x10000000
 80020ee:	9301      	str	r3, [sp, #4]
 80020f0:	9b01      	ldr	r3, [sp, #4]
 80020f2:	2501      	movs	r5, #1
 80020f4:	4b38      	ldr	r3, [pc, #224]	; (80021d8 <HAL_RCCEx_PeriphCLKConfig+0x114>)
 80020f6:	681b      	ldr	r3, [r3, #0]
 80020f8:	f413 7f80 	tst.w	r3, #256	; 0x100
 80020fc:	d03b      	beq.n	8002176 <HAL_RCCEx_PeriphCLKConfig+0xb2>
 80020fe:	4b35      	ldr	r3, [pc, #212]	; (80021d4 <HAL_RCCEx_PeriphCLKConfig+0x110>)
 8002100:	6a1b      	ldr	r3, [r3, #32]
 8002102:	f413 7340 	ands.w	r3, r3, #768	; 0x300
 8002106:	d013      	beq.n	8002130 <HAL_RCCEx_PeriphCLKConfig+0x6c>
 8002108:	6862      	ldr	r2, [r4, #4]
 800210a:	f402 7240 	and.w	r2, r2, #768	; 0x300
 800210e:	429a      	cmp	r2, r3
 8002110:	d00e      	beq.n	8002130 <HAL_RCCEx_PeriphCLKConfig+0x6c>
 8002112:	4a30      	ldr	r2, [pc, #192]	; (80021d4 <HAL_RCCEx_PeriphCLKConfig+0x110>)
 8002114:	6a13      	ldr	r3, [r2, #32]
 8002116:	f423 7040 	bic.w	r0, r3, #768	; 0x300
 800211a:	4930      	ldr	r1, [pc, #192]	; (80021dc <HAL_RCCEx_PeriphCLKConfig+0x118>)
 800211c:	2601      	movs	r6, #1
 800211e:	f8c1 6440 	str.w	r6, [r1, #1088]	; 0x440
 8002122:	2600      	movs	r6, #0
 8002124:	f8c1 6440 	str.w	r6, [r1, #1088]	; 0x440
 8002128:	6210      	str	r0, [r2, #32]
 800212a:	f013 0f01 	tst.w	r3, #1
 800212e:	d136      	bne.n	800219e <HAL_RCCEx_PeriphCLKConfig+0xda>
 8002130:	4a28      	ldr	r2, [pc, #160]	; (80021d4 <HAL_RCCEx_PeriphCLKConfig+0x110>)
 8002132:	6a13      	ldr	r3, [r2, #32]
 8002134:	f423 7340 	bic.w	r3, r3, #768	; 0x300
 8002138:	6861      	ldr	r1, [r4, #4]
 800213a:	430b      	orrs	r3, r1
 800213c:	6213      	str	r3, [r2, #32]
 800213e:	2d00      	cmp	r5, #0
 8002140:	d13e      	bne.n	80021c0 <HAL_RCCEx_PeriphCLKConfig+0xfc>
 8002142:	6823      	ldr	r3, [r4, #0]
 8002144:	f013 0f02 	tst.w	r3, #2
 8002148:	d006      	beq.n	8002158 <HAL_RCCEx_PeriphCLKConfig+0x94>
 800214a:	4a22      	ldr	r2, [pc, #136]	; (80021d4 <HAL_RCCEx_PeriphCLKConfig+0x110>)
 800214c:	6853      	ldr	r3, [r2, #4]
 800214e:	f423 4340 	bic.w	r3, r3, #49152	; 0xc000
 8002152:	68a1      	ldr	r1, [r4, #8]
 8002154:	430b      	orrs	r3, r1
 8002156:	6053      	str	r3, [r2, #4]
 8002158:	6823      	ldr	r3, [r4, #0]
 800215a:	f013 0f10 	tst.w	r3, #16
 800215e:	d034      	beq.n	80021ca <HAL_RCCEx_PeriphCLKConfig+0x106>
 8002160:	4a1c      	ldr	r2, [pc, #112]	; (80021d4 <HAL_RCCEx_PeriphCLKConfig+0x110>)
 8002162:	6853      	ldr	r3, [r2, #4]
 8002164:	f423 0380 	bic.w	r3, r3, #4194304	; 0x400000
 8002168:	68e1      	ldr	r1, [r4, #12]
 800216a:	430b      	orrs	r3, r1
 800216c:	6053      	str	r3, [r2, #4]
 800216e:	2000      	movs	r0, #0
 8002170:	e02c      	b.n	80021cc <HAL_RCCEx_PeriphCLKConfig+0x108>
 8002172:	2500      	movs	r5, #0
 8002174:	e7be      	b.n	80020f4 <HAL_RCCEx_PeriphCLKConfig+0x30>
 8002176:	4a18      	ldr	r2, [pc, #96]	; (80021d8 <HAL_RCCEx_PeriphCLKConfig+0x114>)
 8002178:	6813      	ldr	r3, [r2, #0]
 800217a:	f443 7380 	orr.w	r3, r3, #256	; 0x100
 800217e:	6013      	str	r3, [r2, #0]
 8002180:	f7ff f84e 	bl	8001220 <HAL_GetTick>
 8002184:	4606      	mov	r6, r0
 8002186:	4f14      	ldr	r7, [pc, #80]	; (80021d8 <HAL_RCCEx_PeriphCLKConfig+0x114>)
 8002188:	683b      	ldr	r3, [r7, #0]
 800218a:	f413 7f80 	tst.w	r3, #256	; 0x100
 800218e:	d1b6      	bne.n	80020fe <HAL_RCCEx_PeriphCLKConfig+0x3a>
 8002190:	f7ff f846 	bl	8001220 <HAL_GetTick>
 8002194:	1b80      	subs	r0, r0, r6
 8002196:	2864      	cmp	r0, #100	; 0x64
 8002198:	d9f6      	bls.n	8002188 <HAL_RCCEx_PeriphCLKConfig+0xc4>
 800219a:	2003      	movs	r0, #3
 800219c:	e016      	b.n	80021cc <HAL_RCCEx_PeriphCLKConfig+0x108>
 800219e:	f7ff f83f 	bl	8001220 <HAL_GetTick>
 80021a2:	4606      	mov	r6, r0
 80021a4:	4f0b      	ldr	r7, [pc, #44]	; (80021d4 <HAL_RCCEx_PeriphCLKConfig+0x110>)
 80021a6:	f241 3888 	movw	r8, #5000	; 0x1388
 80021aa:	6a3b      	ldr	r3, [r7, #32]
 80021ac:	f013 0f02 	tst.w	r3, #2
 80021b0:	d1be      	bne.n	8002130 <HAL_RCCEx_PeriphCLKConfig+0x6c>
 80021b2:	f7ff f835 	bl	8001220 <HAL_GetTick>
 80021b6:	1b80      	subs	r0, r0, r6
 80021b8:	4540      	cmp	r0, r8
 80021ba:	d9f6      	bls.n	80021aa <HAL_RCCEx_PeriphCLKConfig+0xe6>
 80021bc:	2003      	movs	r0, #3
 80021be:	e005      	b.n	80021cc <HAL_RCCEx_PeriphCLKConfig+0x108>
 80021c0:	69d3      	ldr	r3, [r2, #28]
 80021c2:	f023 5380 	bic.w	r3, r3, #268435456	; 0x10000000
 80021c6:	61d3      	str	r3, [r2, #28]
 80021c8:	e7bb      	b.n	8002142 <HAL_RCCEx_PeriphCLKConfig+0x7e>
 80021ca:	2000      	movs	r0, #0
 80021cc:	b002      	add	sp, #8
 80021ce:	e8bd 81f0 	ldmia.w	sp!, {r4, r5, r6, r7, r8, pc}
 80021d2:	bf00      	nop
 80021d4:	40021000 	.word	0x40021000
 80021d8:	40007000 	.word	0x40007000
 80021dc:	42420000 	.word	0x42420000

080021e0 <SPI_WaitFlagStateUntilTimeout>:
 80021e0:	e92d 47f0 	stmdb	sp!, {r4, r5, r6, r7, r8, r9, sl, lr}
 80021e4:	b082      	sub	sp, #8
 80021e6:	4681      	mov	r9, r0
 80021e8:	460f      	mov	r7, r1
 80021ea:	4616      	mov	r6, r2
 80021ec:	461d      	mov	r5, r3
 80021ee:	f7ff f817 	bl	8001220 <HAL_GetTick>
 80021f2:	9b0a      	ldr	r3, [sp, #40]	; 0x28
 80021f4:	442b      	add	r3, r5
 80021f6:	eba3 0800 	sub.w	r8, r3, r0
 80021fa:	f7ff f811 	bl	8001220 <HAL_GetTick>
 80021fe:	4682      	mov	sl, r0
 8002200:	4b2c      	ldr	r3, [pc, #176]	; (80022b4 <SPI_WaitFlagStateUntilTimeout+0xd4>)
 8002202:	681b      	ldr	r3, [r3, #0]
 8002204:	f3c3 33cb 	ubfx	r3, r3, #15, #12
 8002208:	fb08 f303 	mul.w	r3, r8, r3
 800220c:	9301      	str	r3, [sp, #4]
 800220e:	f8d9 2000 	ldr.w	r2, [r9]
 8002212:	6894      	ldr	r4, [r2, #8]
 8002214:	ea37 0404 	bics.w	r4, r7, r4
 8002218:	bf0c      	ite	eq
 800221a:	2301      	moveq	r3, #1
 800221c:	2300      	movne	r3, #0
 800221e:	42b3      	cmp	r3, r6
 8002220:	d044      	beq.n	80022ac <SPI_WaitFlagStateUntilTimeout+0xcc>
 8002222:	f1b5 3fff 	cmp.w	r5, #4294967295
 8002226:	d0f4      	beq.n	8002212 <SPI_WaitFlagStateUntilTimeout+0x32>
 8002228:	f7fe fffa 	bl	8001220 <HAL_GetTick>
 800222c:	eba0 000a 	sub.w	r0, r0, sl
 8002230:	4540      	cmp	r0, r8
 8002232:	d207      	bcs.n	8002244 <SPI_WaitFlagStateUntilTimeout+0x64>
 8002234:	9b01      	ldr	r3, [sp, #4]
 8002236:	2b00      	cmp	r3, #0
 8002238:	bf08      	it	eq
 800223a:	4698      	moveq	r8, r3
 800223c:	9b01      	ldr	r3, [sp, #4]
 800223e:	3b01      	subs	r3, #1
 8002240:	9301      	str	r3, [sp, #4]
 8002242:	e7e4      	b.n	800220e <SPI_WaitFlagStateUntilTimeout+0x2e>
 8002244:	f8d9 2000 	ldr.w	r2, [r9]
 8002248:	6853      	ldr	r3, [r2, #4]
 800224a:	f023 03e0 	bic.w	r3, r3, #224	; 0xe0
 800224e:	6053      	str	r3, [r2, #4]
 8002250:	f8d9 3004 	ldr.w	r3, [r9, #4]
 8002254:	f5b3 7f82 	cmp.w	r3, #260	; 0x104
 8002258:	d00c      	beq.n	8002274 <SPI_WaitFlagStateUntilTimeout+0x94>
 800225a:	f8d9 3028 	ldr.w	r3, [r9, #40]	; 0x28
 800225e:	f5b3 5f00 	cmp.w	r3, #8192	; 0x2000
 8002262:	d016      	beq.n	8002292 <SPI_WaitFlagStateUntilTimeout+0xb2>
 8002264:	2301      	movs	r3, #1
 8002266:	f889 3051 	strb.w	r3, [r9, #81]	; 0x51
 800226a:	2300      	movs	r3, #0
 800226c:	f889 3050 	strb.w	r3, [r9, #80]	; 0x50
 8002270:	2003      	movs	r0, #3
 8002272:	e01c      	b.n	80022ae <SPI_WaitFlagStateUntilTimeout+0xce>
 8002274:	f8d9 3008 	ldr.w	r3, [r9, #8]
 8002278:	f5b3 4f00 	cmp.w	r3, #32768	; 0x8000
 800227c:	d002      	beq.n	8002284 <SPI_WaitFlagStateUntilTimeout+0xa4>
 800227e:	f5b3 6f80 	cmp.w	r3, #1024	; 0x400
 8002282:	d1ea      	bne.n	800225a <SPI_WaitFlagStateUntilTimeout+0x7a>
 8002284:	f8d9 2000 	ldr.w	r2, [r9]
 8002288:	6813      	ldr	r3, [r2, #0]
 800228a:	f023 0340 	bic.w	r3, r3, #64	; 0x40
 800228e:	6013      	str	r3, [r2, #0]
 8002290:	e7e3      	b.n	800225a <SPI_WaitFlagStateUntilTimeout+0x7a>
 8002292:	f8d9 2000 	ldr.w	r2, [r9]
 8002296:	6813      	ldr	r3, [r2, #0]
 8002298:	f423 5300 	bic.w	r3, r3, #8192	; 0x2000
 800229c:	6013      	str	r3, [r2, #0]
 800229e:	f8d9 2000 	ldr.w	r2, [r9]
 80022a2:	6813      	ldr	r3, [r2, #0]
 80022a4:	f443 5300 	orr.w	r3, r3, #8192	; 0x2000
 80022a8:	6013      	str	r3, [r2, #0]
 80022aa:	e7db      	b.n	8002264 <SPI_WaitFlagStateUntilTimeout+0x84>
 80022ac:	2000      	movs	r0, #0
 80022ae:	b002      	add	sp, #8
 80022b0:	e8bd 87f0 	ldmia.w	sp!, {r4, r5, r6, r7, r8, r9, sl, pc}
 80022b4:	20000000 	.word	0x20000000

080022b8 <SPI_EndRxTxTransaction>:
 80022b8:	b510      	push	{r4, lr}
 80022ba:	b082      	sub	sp, #8
 80022bc:	4604      	mov	r4, r0
 80022be:	460b      	mov	r3, r1
 80022c0:	9200      	str	r2, [sp, #0]
 80022c2:	2200      	movs	r2, #0
 80022c4:	2180      	movs	r1, #128	; 0x80
 80022c6:	f7ff ff8b 	bl	80021e0 <SPI_WaitFlagStateUntilTimeout>
 80022ca:	b908      	cbnz	r0, 80022d0 <SPI_EndRxTxTransaction+0x18>
 80022cc:	b002      	add	sp, #8
 80022ce:	bd10      	pop	{r4, pc}
 80022d0:	6d63      	ldr	r3, [r4, #84]	; 0x54
 80022d2:	f043 0320 	orr.w	r3, r3, #32
 80022d6:	6563      	str	r3, [r4, #84]	; 0x54
 80022d8:	2003      	movs	r0, #3
 80022da:	e7f7      	b.n	80022cc <SPI_EndRxTxTransaction+0x14>

080022dc <SPI_EndRxTransaction>:
 80022dc:	b510      	push	{r4, lr}
 80022de:	b082      	sub	sp, #8
 80022e0:	4604      	mov	r4, r0
 80022e2:	460b      	mov	r3, r1
 80022e4:	6841      	ldr	r1, [r0, #4]
 80022e6:	f5b1 7f82 	cmp.w	r1, #260	; 0x104
 80022ea:	d008      	beq.n	80022fe <SPI_EndRxTransaction+0x22>
 80022ec:	9200      	str	r2, [sp, #0]
 80022ee:	2200      	movs	r2, #0
 80022f0:	2180      	movs	r1, #128	; 0x80
 80022f2:	4620      	mov	r0, r4
 80022f4:	f7ff ff74 	bl	80021e0 <SPI_WaitFlagStateUntilTimeout>
 80022f8:	bb18      	cbnz	r0, 8002342 <SPI_EndRxTransaction+0x66>
 80022fa:	b002      	add	sp, #8
 80022fc:	bd10      	pop	{r4, pc}
 80022fe:	6881      	ldr	r1, [r0, #8]
 8002300:	f5b1 4f00 	cmp.w	r1, #32768	; 0x8000
 8002304:	d002      	beq.n	800230c <SPI_EndRxTransaction+0x30>
 8002306:	f5b1 6f80 	cmp.w	r1, #1024	; 0x400
 800230a:	d1ef      	bne.n	80022ec <SPI_EndRxTransaction+0x10>
 800230c:	6820      	ldr	r0, [r4, #0]
 800230e:	6801      	ldr	r1, [r0, #0]
 8002310:	f021 0140 	bic.w	r1, r1, #64	; 0x40
 8002314:	6001      	str	r1, [r0, #0]
 8002316:	6861      	ldr	r1, [r4, #4]
 8002318:	f5b1 7f82 	cmp.w	r1, #260	; 0x104
 800231c:	d1e6      	bne.n	80022ec <SPI_EndRxTransaction+0x10>
 800231e:	68a1      	ldr	r1, [r4, #8]
 8002320:	f5b1 6f80 	cmp.w	r1, #1024	; 0x400
 8002324:	d1e2      	bne.n	80022ec <SPI_EndRxTransaction+0x10>
 8002326:	9200      	str	r2, [sp, #0]
 8002328:	2200      	movs	r2, #0
 800232a:	2101      	movs	r1, #1
 800232c:	4620      	mov	r0, r4
 800232e:	f7ff ff57 	bl	80021e0 <SPI_WaitFlagStateUntilTimeout>
 8002332:	2800      	cmp	r0, #0
 8002334:	d0e1      	beq.n	80022fa <SPI_EndRxTransaction+0x1e>
 8002336:	6d63      	ldr	r3, [r4, #84]	; 0x54
 8002338:	f043 0320 	orr.w	r3, r3, #32
 800233c:	6563      	str	r3, [r4, #84]	; 0x54
 800233e:	2003      	movs	r0, #3
 8002340:	e7db      	b.n	80022fa <SPI_EndRxTransaction+0x1e>
 8002342:	6d63      	ldr	r3, [r4, #84]	; 0x54
 8002344:	f043 0320 	orr.w	r3, r3, #32
 8002348:	6563      	str	r3, [r4, #84]	; 0x54
 800234a:	2003      	movs	r0, #3
 800234c:	e7d5      	b.n	80022fa <SPI_EndRxTransaction+0x1e>

0800234e <HAL_SPI_Init>:
 800234e:	2800      	cmp	r0, #0
 8002350:	d056      	beq.n	8002400 <HAL_SPI_Init+0xb2>
 8002352:	b510      	push	{r4, lr}
 8002354:	4604      	mov	r4, r0
 8002356:	6a43      	ldr	r3, [r0, #36]	; 0x24
 8002358:	b933      	cbnz	r3, 8002368 <HAL_SPI_Init+0x1a>
 800235a:	6843      	ldr	r3, [r0, #4]
 800235c:	f5b3 7f82 	cmp.w	r3, #260	; 0x104
 8002360:	d005      	beq.n	800236e <HAL_SPI_Init+0x20>
 8002362:	2300      	movs	r3, #0
 8002364:	61c3      	str	r3, [r0, #28]
 8002366:	e002      	b.n	800236e <HAL_SPI_Init+0x20>
 8002368:	2300      	movs	r3, #0
 800236a:	6103      	str	r3, [r0, #16]
 800236c:	6143      	str	r3, [r0, #20]
 800236e:	2300      	movs	r3, #0
 8002370:	62a3      	str	r3, [r4, #40]	; 0x28
 8002372:	f894 3051 	ldrb.w	r3, [r4, #81]	; 0x51
 8002376:	2b00      	cmp	r3, #0
 8002378:	d03c      	beq.n	80023f4 <HAL_SPI_Init+0xa6>
 800237a:	2302      	movs	r3, #2
 800237c:	f884 3051 	strb.w	r3, [r4, #81]	; 0x51
 8002380:	6822      	ldr	r2, [r4, #0]
 8002382:	6813      	ldr	r3, [r2, #0]
 8002384:	f023 0340 	bic.w	r3, r3, #64	; 0x40
 8002388:	6013      	str	r3, [r2, #0]
 800238a:	6822      	ldr	r2, [r4, #0]
 800238c:	6863      	ldr	r3, [r4, #4]
 800238e:	f403 7382 	and.w	r3, r3, #260	; 0x104
 8002392:	68a1      	ldr	r1, [r4, #8]
 8002394:	f401 4104 	and.w	r1, r1, #33792	; 0x8400
 8002398:	430b      	orrs	r3, r1
 800239a:	68e1      	ldr	r1, [r4, #12]
 800239c:	f401 6100 	and.w	r1, r1, #2048	; 0x800
 80023a0:	430b      	orrs	r3, r1
 80023a2:	6921      	ldr	r1, [r4, #16]
 80023a4:	f001 0102 	and.w	r1, r1, #2
 80023a8:	430b      	orrs	r3, r1
 80023aa:	6961      	ldr	r1, [r4, #20]
 80023ac:	f001 0101 	and.w	r1, r1, #1
 80023b0:	430b      	orrs	r3, r1
 80023b2:	69a1      	ldr	r1, [r4, #24]
 80023b4:	f401 7100 	and.w	r1, r1, #512	; 0x200
 80023b8:	430b      	orrs	r3, r1
 80023ba:	69e1      	ldr	r1, [r4, #28]
 80023bc:	f001 0138 	and.w	r1, r1, #56	; 0x38
 80023c0:	430b      	orrs	r3, r1
 80023c2:	6a21      	ldr	r1, [r4, #32]
 80023c4:	f001 0180 	and.w	r1, r1, #128	; 0x80
 80023c8:	430b      	orrs	r3, r1
 80023ca:	6aa1      	ldr	r1, [r4, #40]	; 0x28
 80023cc:	f401 5100 	and.w	r1, r1, #8192	; 0x2000
 80023d0:	430b      	orrs	r3, r1
 80023d2:	6013      	str	r3, [r2, #0]
 80023d4:	6822      	ldr	r2, [r4, #0]
 80023d6:	8b63      	ldrh	r3, [r4, #26]
 80023d8:	f003 0304 	and.w	r3, r3, #4
 80023dc:	6053      	str	r3, [r2, #4]
 80023de:	6822      	ldr	r2, [r4, #0]
 80023e0:	69d3      	ldr	r3, [r2, #28]
 80023e2:	f423 6300 	bic.w	r3, r3, #2048	; 0x800
 80023e6:	61d3      	str	r3, [r2, #28]
 80023e8:	2000      	movs	r0, #0
 80023ea:	6560      	str	r0, [r4, #84]	; 0x54
 80023ec:	2301      	movs	r3, #1
 80023ee:	f884 3051 	strb.w	r3, [r4, #81]	; 0x51
 80023f2:	bd10      	pop	{r4, pc}
 80023f4:	f884 3050 	strb.w	r3, [r4, #80]	; 0x50
 80023f8:	4620      	mov	r0, r4
 80023fa:	f7fe fcdf 	bl	8000dbc <HAL_SPI_MspInit>
 80023fe:	e7bc      	b.n	800237a <HAL_SPI_Init+0x2c>
 8002400:	2001      	movs	r0, #1
 8002402:	4770      	bx	lr

08002404 <HAL_SPI_Transmit>:
 8002404:	e92d 43f0 	stmdb	sp!, {r4, r5, r6, r7, r8, r9, lr}
 8002408:	b083      	sub	sp, #12
 800240a:	461d      	mov	r5, r3
 800240c:	f890 3050 	ldrb.w	r3, [r0, #80]	; 0x50
 8002410:	2b01      	cmp	r3, #1
 8002412:	f000 80d6 	beq.w	80025c2 <HAL_SPI_Transmit+0x1be>
 8002416:	4604      	mov	r4, r0
 8002418:	4688      	mov	r8, r1
 800241a:	4691      	mov	r9, r2
 800241c:	2301      	movs	r3, #1
 800241e:	f880 3050 	strb.w	r3, [r0, #80]	; 0x50
 8002422:	f7fe fefd 	bl	8001220 <HAL_GetTick>
 8002426:	4607      	mov	r7, r0
 8002428:	f894 6051 	ldrb.w	r6, [r4, #81]	; 0x51
 800242c:	b2f6      	uxtb	r6, r6
 800242e:	2e01      	cmp	r6, #1
 8002430:	f040 80bf 	bne.w	80025b2 <HAL_SPI_Transmit+0x1ae>
 8002434:	f1b8 0f00 	cmp.w	r8, #0
 8002438:	f000 80bc 	beq.w	80025b4 <HAL_SPI_Transmit+0x1b0>
 800243c:	f1b9 0f00 	cmp.w	r9, #0
 8002440:	f000 80b8 	beq.w	80025b4 <HAL_SPI_Transmit+0x1b0>
 8002444:	2303      	movs	r3, #3
 8002446:	f884 3051 	strb.w	r3, [r4, #81]	; 0x51
 800244a:	2300      	movs	r3, #0
 800244c:	6563      	str	r3, [r4, #84]	; 0x54
 800244e:	f8c4 8030 	str.w	r8, [r4, #48]	; 0x30
 8002452:	f8a4 9034 	strh.w	r9, [r4, #52]	; 0x34
 8002456:	f8a4 9036 	strh.w	r9, [r4, #54]	; 0x36
 800245a:	63a3      	str	r3, [r4, #56]	; 0x38
 800245c:	87a3      	strh	r3, [r4, #60]	; 0x3c
 800245e:	87e3      	strh	r3, [r4, #62]	; 0x3e
 8002460:	6463      	str	r3, [r4, #68]	; 0x44
 8002462:	6423      	str	r3, [r4, #64]	; 0x40
 8002464:	68a3      	ldr	r3, [r4, #8]
 8002466:	f5b3 4f00 	cmp.w	r3, #32768	; 0x8000
 800246a:	d039      	beq.n	80024e0 <HAL_SPI_Transmit+0xdc>
 800246c:	6823      	ldr	r3, [r4, #0]
 800246e:	681a      	ldr	r2, [r3, #0]
 8002470:	f012 0f40 	tst.w	r2, #64	; 0x40
 8002474:	d103      	bne.n	800247e <HAL_SPI_Transmit+0x7a>
 8002476:	681a      	ldr	r2, [r3, #0]
 8002478:	f042 0240 	orr.w	r2, r2, #64	; 0x40
 800247c:	601a      	str	r2, [r3, #0]
 800247e:	68e3      	ldr	r3, [r4, #12]
 8002480:	f5b3 6f00 	cmp.w	r3, #2048	; 0x800
 8002484:	d037      	beq.n	80024f6 <HAL_SPI_Transmit+0xf2>
 8002486:	6863      	ldr	r3, [r4, #4]
 8002488:	b113      	cbz	r3, 8002490 <HAL_SPI_Transmit+0x8c>
 800248a:	f1b9 0f01 	cmp.w	r9, #1
 800248e:	d10a      	bne.n	80024a6 <HAL_SPI_Transmit+0xa2>
 8002490:	6823      	ldr	r3, [r4, #0]
 8002492:	6b22      	ldr	r2, [r4, #48]	; 0x30
 8002494:	7812      	ldrb	r2, [r2, #0]
 8002496:	731a      	strb	r2, [r3, #12]
 8002498:	6b23      	ldr	r3, [r4, #48]	; 0x30
 800249a:	3301      	adds	r3, #1
 800249c:	6323      	str	r3, [r4, #48]	; 0x30
 800249e:	8ee3      	ldrh	r3, [r4, #54]	; 0x36
 80024a0:	3b01      	subs	r3, #1
 80024a2:	b29b      	uxth	r3, r3
 80024a4:	86e3      	strh	r3, [r4, #54]	; 0x36
 80024a6:	8ee3      	ldrh	r3, [r4, #54]	; 0x36
 80024a8:	b29b      	uxth	r3, r3
 80024aa:	2b00      	cmp	r3, #0
 80024ac:	d166      	bne.n	800257c <HAL_SPI_Transmit+0x178>
 80024ae:	463a      	mov	r2, r7
 80024b0:	4629      	mov	r1, r5
 80024b2:	4620      	mov	r0, r4
 80024b4:	f7ff ff00 	bl	80022b8 <SPI_EndRxTxTransaction>
 80024b8:	b108      	cbz	r0, 80024be <HAL_SPI_Transmit+0xba>
 80024ba:	2320      	movs	r3, #32
 80024bc:	6563      	str	r3, [r4, #84]	; 0x54
 80024be:	68a3      	ldr	r3, [r4, #8]
 80024c0:	b933      	cbnz	r3, 80024d0 <HAL_SPI_Transmit+0xcc>
 80024c2:	9301      	str	r3, [sp, #4]
 80024c4:	6823      	ldr	r3, [r4, #0]
 80024c6:	68da      	ldr	r2, [r3, #12]
 80024c8:	9201      	str	r2, [sp, #4]
 80024ca:	689b      	ldr	r3, [r3, #8]
 80024cc:	9301      	str	r3, [sp, #4]
 80024ce:	9b01      	ldr	r3, [sp, #4]
 80024d0:	6d63      	ldr	r3, [r4, #84]	; 0x54
 80024d2:	2b00      	cmp	r3, #0
 80024d4:	d16e      	bne.n	80025b4 <HAL_SPI_Transmit+0x1b0>
 80024d6:	2301      	movs	r3, #1
 80024d8:	f884 3051 	strb.w	r3, [r4, #81]	; 0x51
 80024dc:	2600      	movs	r6, #0
 80024de:	e069      	b.n	80025b4 <HAL_SPI_Transmit+0x1b0>
 80024e0:	6822      	ldr	r2, [r4, #0]
 80024e2:	6813      	ldr	r3, [r2, #0]
 80024e4:	f023 0340 	bic.w	r3, r3, #64	; 0x40
 80024e8:	6013      	str	r3, [r2, #0]
 80024ea:	6822      	ldr	r2, [r4, #0]
 80024ec:	6813      	ldr	r3, [r2, #0]
 80024ee:	f443 4380 	orr.w	r3, r3, #16384	; 0x4000
 80024f2:	6013      	str	r3, [r2, #0]
 80024f4:	e7ba      	b.n	800246c <HAL_SPI_Transmit+0x68>
 80024f6:	6863      	ldr	r3, [r4, #4]
 80024f8:	b113      	cbz	r3, 8002500 <HAL_SPI_Transmit+0xfc>
 80024fa:	f1b9 0f01 	cmp.w	r9, #1
 80024fe:	d10a      	bne.n	8002516 <HAL_SPI_Transmit+0x112>
 8002500:	6823      	ldr	r3, [r4, #0]
 8002502:	6b22      	ldr	r2, [r4, #48]	; 0x30
 8002504:	8812      	ldrh	r2, [r2, #0]
 8002506:	60da      	str	r2, [r3, #12]
 8002508:	6b23      	ldr	r3, [r4, #48]	; 0x30
 800250a:	3302      	adds	r3, #2
 800250c:	6323      	str	r3, [r4, #48]	; 0x30
 800250e:	8ee3      	ldrh	r3, [r4, #54]	; 0x36
 8002510:	3b01      	subs	r3, #1
 8002512:	b29b      	uxth	r3, r3
 8002514:	86e3      	strh	r3, [r4, #54]	; 0x36
 8002516:	8ee3      	ldrh	r3, [r4, #54]	; 0x36
 8002518:	b29b      	uxth	r3, r3
 800251a:	b963      	cbnz	r3, 8002536 <HAL_SPI_Transmit+0x132>
 800251c:	e7c7      	b.n	80024ae <HAL_SPI_Transmit+0xaa>
 800251e:	f7fe fe7f 	bl	8001220 <HAL_GetTick>
 8002522:	1bc0      	subs	r0, r0, r7
 8002524:	42a8      	cmp	r0, r5
 8002526:	d316      	bcc.n	8002556 <HAL_SPI_Transmit+0x152>
 8002528:	f1b5 3fff 	cmp.w	r5, #4294967295
 800252c:	d115      	bne.n	800255a <HAL_SPI_Transmit+0x156>
 800252e:	8ee3      	ldrh	r3, [r4, #54]	; 0x36
 8002530:	b29b      	uxth	r3, r3
 8002532:	2b00      	cmp	r3, #0
 8002534:	d0bb      	beq.n	80024ae <HAL_SPI_Transmit+0xaa>
 8002536:	6823      	ldr	r3, [r4, #0]
 8002538:	689a      	ldr	r2, [r3, #8]
 800253a:	f012 0f02 	tst.w	r2, #2
 800253e:	d0ee      	beq.n	800251e <HAL_SPI_Transmit+0x11a>
 8002540:	6b22      	ldr	r2, [r4, #48]	; 0x30
 8002542:	8812      	ldrh	r2, [r2, #0]
 8002544:	60da      	str	r2, [r3, #12]
 8002546:	6b23      	ldr	r3, [r4, #48]	; 0x30
 8002548:	3302      	adds	r3, #2
 800254a:	6323      	str	r3, [r4, #48]	; 0x30
 800254c:	8ee3      	ldrh	r3, [r4, #54]	; 0x36
 800254e:	3b01      	subs	r3, #1
 8002550:	b29b      	uxth	r3, r3
 8002552:	86e3      	strh	r3, [r4, #54]	; 0x36
 8002554:	e7eb      	b.n	800252e <HAL_SPI_Transmit+0x12a>
 8002556:	2d00      	cmp	r5, #0
 8002558:	d1e9      	bne.n	800252e <HAL_SPI_Transmit+0x12a>
 800255a:	2301      	movs	r3, #1
 800255c:	f884 3051 	strb.w	r3, [r4, #81]	; 0x51
 8002560:	2603      	movs	r6, #3
 8002562:	e027      	b.n	80025b4 <HAL_SPI_Transmit+0x1b0>
 8002564:	f7fe fe5c 	bl	8001220 <HAL_GetTick>
 8002568:	1bc0      	subs	r0, r0, r7
 800256a:	42a8      	cmp	r0, r5
 800256c:	d31a      	bcc.n	80025a4 <HAL_SPI_Transmit+0x1a0>
 800256e:	f1b5 3fff 	cmp.w	r5, #4294967295
 8002572:	d119      	bne.n	80025a8 <HAL_SPI_Transmit+0x1a4>
 8002574:	8ee1      	ldrh	r1, [r4, #54]	; 0x36
 8002576:	b289      	uxth	r1, r1
 8002578:	2900      	cmp	r1, #0
 800257a:	d098      	beq.n	80024ae <HAL_SPI_Transmit+0xaa>
 800257c:	6823      	ldr	r3, [r4, #0]
 800257e:	689a      	ldr	r2, [r3, #8]
 8002580:	f012 0f02 	tst.w	r2, #2
 8002584:	d0ee      	beq.n	8002564 <HAL_SPI_Transmit+0x160>
 8002586:	6b22      	ldr	r2, [r4, #48]	; 0x30
 8002588:	7812      	ldrb	r2, [r2, #0]
 800258a:	731a      	strb	r2, [r3, #12]
 800258c:	6b23      	ldr	r3, [r4, #48]	; 0x30
 800258e:	3301      	adds	r3, #1
 8002590:	6323      	str	r3, [r4, #48]	; 0x30
 8002592:	f8b4 c036 	ldrh.w	ip, [r4, #54]	; 0x36
 8002596:	f10c 3cff 	add.w	ip, ip, #4294967295
 800259a:	fa1f fc8c 	uxth.w	ip, ip
 800259e:	f8a4 c036 	strh.w	ip, [r4, #54]	; 0x36
 80025a2:	e7e7      	b.n	8002574 <HAL_SPI_Transmit+0x170>
 80025a4:	2d00      	cmp	r5, #0
 80025a6:	d1e5      	bne.n	8002574 <HAL_SPI_Transmit+0x170>
 80025a8:	2301      	movs	r3, #1
 80025aa:	f884 3051 	strb.w	r3, [r4, #81]	; 0x51
 80025ae:	2603      	movs	r6, #3
 80025b0:	e000      	b.n	80025b4 <HAL_SPI_Transmit+0x1b0>
 80025b2:	2602      	movs	r6, #2
 80025b4:	2300      	movs	r3, #0
 80025b6:	f884 3050 	strb.w	r3, [r4, #80]	; 0x50
 80025ba:	4630      	mov	r0, r6
 80025bc:	b003      	add	sp, #12
 80025be:	e8bd 83f0 	ldmia.w	sp!, {r4, r5, r6, r7, r8, r9, pc}
 80025c2:	2602      	movs	r6, #2
 80025c4:	e7f9      	b.n	80025ba <HAL_SPI_Transmit+0x1b6>

080025c6 <HAL_SPI_TransmitReceive>:
 80025c6:	e92d 43f0 	stmdb	sp!, {r4, r5, r6, r7, r8, r9, lr}
 80025ca:	b083      	sub	sp, #12
 80025cc:	461f      	mov	r7, r3
 80025ce:	9d0a      	ldr	r5, [sp, #40]	; 0x28
 80025d0:	f890 3050 	ldrb.w	r3, [r0, #80]	; 0x50
 80025d4:	2b01      	cmp	r3, #1
 80025d6:	f000 8115 	beq.w	8002804 <HAL_SPI_TransmitReceive+0x23e>
 80025da:	4604      	mov	r4, r0
 80025dc:	4688      	mov	r8, r1
 80025de:	4691      	mov	r9, r2
 80025e0:	2301      	movs	r3, #1
 80025e2:	f880 3050 	strb.w	r3, [r0, #80]	; 0x50
 80025e6:	f7fe fe1b 	bl	8001220 <HAL_GetTick>
 80025ea:	4606      	mov	r6, r0
 80025ec:	f894 0051 	ldrb.w	r0, [r4, #81]	; 0x51
 80025f0:	b2c0      	uxtb	r0, r0
 80025f2:	6863      	ldr	r3, [r4, #4]
 80025f4:	2801      	cmp	r0, #1
 80025f6:	d00a      	beq.n	800260e <HAL_SPI_TransmitReceive+0x48>
 80025f8:	f5b3 7f82 	cmp.w	r3, #260	; 0x104
 80025fc:	f040 80ef 	bne.w	80027de <HAL_SPI_TransmitReceive+0x218>
 8002600:	68a3      	ldr	r3, [r4, #8]
 8002602:	2b00      	cmp	r3, #0
 8002604:	f040 80f2 	bne.w	80027ec <HAL_SPI_TransmitReceive+0x226>
 8002608:	2804      	cmp	r0, #4
 800260a:	f040 80f1 	bne.w	80027f0 <HAL_SPI_TransmitReceive+0x22a>
 800260e:	f1b8 0f00 	cmp.w	r8, #0
 8002612:	f000 80ef 	beq.w	80027f4 <HAL_SPI_TransmitReceive+0x22e>
 8002616:	f1b9 0f00 	cmp.w	r9, #0
 800261a:	f000 80ed 	beq.w	80027f8 <HAL_SPI_TransmitReceive+0x232>
 800261e:	2f00      	cmp	r7, #0
 8002620:	f000 80ec 	beq.w	80027fc <HAL_SPI_TransmitReceive+0x236>
 8002624:	f894 3051 	ldrb.w	r3, [r4, #81]	; 0x51
 8002628:	b2db      	uxtb	r3, r3
 800262a:	2b04      	cmp	r3, #4
 800262c:	bf1c      	itt	ne
 800262e:	2305      	movne	r3, #5
 8002630:	f884 3051 	strbne.w	r3, [r4, #81]	; 0x51
 8002634:	2300      	movs	r3, #0
 8002636:	6563      	str	r3, [r4, #84]	; 0x54
 8002638:	f8c4 9038 	str.w	r9, [r4, #56]	; 0x38
 800263c:	87e7      	strh	r7, [r4, #62]	; 0x3e
 800263e:	87a7      	strh	r7, [r4, #60]	; 0x3c
 8002640:	f8c4 8030 	str.w	r8, [r4, #48]	; 0x30
 8002644:	86e7      	strh	r7, [r4, #54]	; 0x36
 8002646:	86a7      	strh	r7, [r4, #52]	; 0x34
 8002648:	6423      	str	r3, [r4, #64]	; 0x40
 800264a:	6463      	str	r3, [r4, #68]	; 0x44
 800264c:	6823      	ldr	r3, [r4, #0]
 800264e:	681a      	ldr	r2, [r3, #0]
 8002650:	f012 0f40 	tst.w	r2, #64	; 0x40
 8002654:	d103      	bne.n	800265e <HAL_SPI_TransmitReceive+0x98>
 8002656:	681a      	ldr	r2, [r3, #0]
 8002658:	f042 0240 	orr.w	r2, r2, #64	; 0x40
 800265c:	601a      	str	r2, [r3, #0]
 800265e:	68e3      	ldr	r3, [r4, #12]
 8002660:	f5b3 6f00 	cmp.w	r3, #2048	; 0x800
 8002664:	d012      	beq.n	800268c <HAL_SPI_TransmitReceive+0xc6>
 8002666:	6863      	ldr	r3, [r4, #4]
 8002668:	b10b      	cbz	r3, 800266e <HAL_SPI_TransmitReceive+0xa8>
 800266a:	2f01      	cmp	r7, #1
 800266c:	d10a      	bne.n	8002684 <HAL_SPI_TransmitReceive+0xbe>
 800266e:	6823      	ldr	r3, [r4, #0]
 8002670:	6b22      	ldr	r2, [r4, #48]	; 0x30
 8002672:	7812      	ldrb	r2, [r2, #0]
 8002674:	731a      	strb	r2, [r3, #12]
 8002676:	6b23      	ldr	r3, [r4, #48]	; 0x30
 8002678:	3301      	adds	r3, #1
 800267a:	6323      	str	r3, [r4, #48]	; 0x30
 800267c:	8ee3      	ldrh	r3, [r4, #54]	; 0x36
 800267e:	3b01      	subs	r3, #1
 8002680:	b29b      	uxth	r3, r3
 8002682:	86e3      	strh	r3, [r4, #54]	; 0x36
 8002684:	2701      	movs	r7, #1
 8002686:	f04f 0800 	mov.w	r8, #0
 800268a:	e06b      	b.n	8002764 <HAL_SPI_TransmitReceive+0x19e>
 800268c:	6863      	ldr	r3, [r4, #4]
 800268e:	b10b      	cbz	r3, 8002694 <HAL_SPI_TransmitReceive+0xce>
 8002690:	2f01      	cmp	r7, #1
 8002692:	d10a      	bne.n	80026aa <HAL_SPI_TransmitReceive+0xe4>
 8002694:	6823      	ldr	r3, [r4, #0]
 8002696:	6b22      	ldr	r2, [r4, #48]	; 0x30
 8002698:	8812      	ldrh	r2, [r2, #0]
 800269a:	60da      	str	r2, [r3, #12]
 800269c:	6b23      	ldr	r3, [r4, #48]	; 0x30
 800269e:	3302      	adds	r3, #2
 80026a0:	6323      	str	r3, [r4, #48]	; 0x30
 80026a2:	8ee3      	ldrh	r3, [r4, #54]	; 0x36
 80026a4:	3b01      	subs	r3, #1
 80026a6:	b29b      	uxth	r3, r3
 80026a8:	86e3      	strh	r3, [r4, #54]	; 0x36
 80026aa:	2701      	movs	r7, #1
 80026ac:	f04f 0800 	mov.w	r8, #0
 80026b0:	e01a      	b.n	80026e8 <HAL_SPI_TransmitReceive+0x122>
 80026b2:	6822      	ldr	r2, [r4, #0]
 80026b4:	6893      	ldr	r3, [r2, #8]
 80026b6:	f013 0301 	ands.w	r3, r3, #1
 80026ba:	d00d      	beq.n	80026d8 <HAL_SPI_TransmitReceive+0x112>
 80026bc:	8fe1      	ldrh	r1, [r4, #62]	; 0x3e
 80026be:	b289      	uxth	r1, r1
 80026c0:	b151      	cbz	r1, 80026d8 <HAL_SPI_TransmitReceive+0x112>
 80026c2:	68d1      	ldr	r1, [r2, #12]
 80026c4:	6ba2      	ldr	r2, [r4, #56]	; 0x38
 80026c6:	8011      	strh	r1, [r2, #0]
 80026c8:	6ba2      	ldr	r2, [r4, #56]	; 0x38
 80026ca:	3202      	adds	r2, #2
 80026cc:	63a2      	str	r2, [r4, #56]	; 0x38
 80026ce:	8fe2      	ldrh	r2, [r4, #62]	; 0x3e
 80026d0:	3a01      	subs	r2, #1
 80026d2:	b292      	uxth	r2, r2
 80026d4:	87e2      	strh	r2, [r4, #62]	; 0x3e
 80026d6:	461f      	mov	r7, r3
 80026d8:	f7fe fda2 	bl	8001220 <HAL_GetTick>
 80026dc:	1b80      	subs	r0, r0, r6
 80026de:	42a8      	cmp	r0, r5
 80026e0:	d302      	bcc.n	80026e8 <HAL_SPI_TransmitReceive+0x122>
 80026e2:	f1b5 3fff 	cmp.w	r5, #4294967295
 80026e6:	d11d      	bne.n	8002724 <HAL_SPI_TransmitReceive+0x15e>
 80026e8:	8ee3      	ldrh	r3, [r4, #54]	; 0x36
 80026ea:	b29b      	uxth	r3, r3
 80026ec:	b91b      	cbnz	r3, 80026f6 <HAL_SPI_TransmitReceive+0x130>
 80026ee:	8fe3      	ldrh	r3, [r4, #62]	; 0x3e
 80026f0:	b29b      	uxth	r3, r3
 80026f2:	2b00      	cmp	r3, #0
 80026f4:	d05a      	beq.n	80027ac <HAL_SPI_TransmitReceive+0x1e6>
 80026f6:	6823      	ldr	r3, [r4, #0]
 80026f8:	689a      	ldr	r2, [r3, #8]
 80026fa:	f012 0f02 	tst.w	r2, #2
 80026fe:	d0d8      	beq.n	80026b2 <HAL_SPI_TransmitReceive+0xec>
 8002700:	8ee2      	ldrh	r2, [r4, #54]	; 0x36
 8002702:	b292      	uxth	r2, r2
 8002704:	2a00      	cmp	r2, #0
 8002706:	d0d4      	beq.n	80026b2 <HAL_SPI_TransmitReceive+0xec>
 8002708:	2f00      	cmp	r7, #0
 800270a:	d0d2      	beq.n	80026b2 <HAL_SPI_TransmitReceive+0xec>
 800270c:	6b22      	ldr	r2, [r4, #48]	; 0x30
 800270e:	8812      	ldrh	r2, [r2, #0]
 8002710:	60da      	str	r2, [r3, #12]
 8002712:	6b23      	ldr	r3, [r4, #48]	; 0x30
 8002714:	3302      	adds	r3, #2
 8002716:	6323      	str	r3, [r4, #48]	; 0x30
 8002718:	8ee3      	ldrh	r3, [r4, #54]	; 0x36
 800271a:	3b01      	subs	r3, #1
 800271c:	b29b      	uxth	r3, r3
 800271e:	86e3      	strh	r3, [r4, #54]	; 0x36
 8002720:	4647      	mov	r7, r8
 8002722:	e7c6      	b.n	80026b2 <HAL_SPI_TransmitReceive+0xec>
 8002724:	2301      	movs	r3, #1
 8002726:	f884 3051 	strb.w	r3, [r4, #81]	; 0x51
 800272a:	2003      	movs	r0, #3
 800272c:	e058      	b.n	80027e0 <HAL_SPI_TransmitReceive+0x21a>
 800272e:	6822      	ldr	r2, [r4, #0]
 8002730:	6893      	ldr	r3, [r2, #8]
 8002732:	f013 0301 	ands.w	r3, r3, #1
 8002736:	d00d      	beq.n	8002754 <HAL_SPI_TransmitReceive+0x18e>
 8002738:	8fe1      	ldrh	r1, [r4, #62]	; 0x3e
 800273a:	b289      	uxth	r1, r1
 800273c:	b151      	cbz	r1, 8002754 <HAL_SPI_TransmitReceive+0x18e>
 800273e:	68d1      	ldr	r1, [r2, #12]
 8002740:	6ba2      	ldr	r2, [r4, #56]	; 0x38
 8002742:	7011      	strb	r1, [r2, #0]
 8002744:	6ba2      	ldr	r2, [r4, #56]	; 0x38
 8002746:	3201      	adds	r2, #1
 8002748:	63a2      	str	r2, [r4, #56]	; 0x38
 800274a:	8fe2      	ldrh	r2, [r4, #62]	; 0x3e
 800274c:	3a01      	subs	r2, #1
 800274e:	b292      	uxth	r2, r2
 8002750:	87e2      	strh	r2, [r4, #62]	; 0x3e
 8002752:	461f      	mov	r7, r3
 8002754:	f7fe fd64 	bl	8001220 <HAL_GetTick>
 8002758:	1b83      	subs	r3, r0, r6
 800275a:	42ab      	cmp	r3, r5
 800275c:	d31f      	bcc.n	800279e <HAL_SPI_TransmitReceive+0x1d8>
 800275e:	f1b5 3fff 	cmp.w	r5, #4294967295
 8002762:	d11e      	bne.n	80027a2 <HAL_SPI_TransmitReceive+0x1dc>
 8002764:	8ee3      	ldrh	r3, [r4, #54]	; 0x36
 8002766:	b29b      	uxth	r3, r3
 8002768:	b913      	cbnz	r3, 8002770 <HAL_SPI_TransmitReceive+0x1aa>
 800276a:	8fe3      	ldrh	r3, [r4, #62]	; 0x3e
 800276c:	b29b      	uxth	r3, r3
 800276e:	b1eb      	cbz	r3, 80027ac <HAL_SPI_TransmitReceive+0x1e6>
 8002770:	6823      	ldr	r3, [r4, #0]
 8002772:	689a      	ldr	r2, [r3, #8]
 8002774:	f012 0f02 	tst.w	r2, #2
 8002778:	d0d9      	beq.n	800272e <HAL_SPI_TransmitReceive+0x168>
 800277a:	8ee2      	ldrh	r2, [r4, #54]	; 0x36
 800277c:	b292      	uxth	r2, r2
 800277e:	2a00      	cmp	r2, #0
 8002780:	d0d5      	beq.n	800272e <HAL_SPI_TransmitReceive+0x168>
 8002782:	2f01      	cmp	r7, #1
 8002784:	d1d3      	bne.n	800272e <HAL_SPI_TransmitReceive+0x168>
 8002786:	6b22      	ldr	r2, [r4, #48]	; 0x30
 8002788:	7812      	ldrb	r2, [r2, #0]
 800278a:	731a      	strb	r2, [r3, #12]
 800278c:	6b23      	ldr	r3, [r4, #48]	; 0x30
 800278e:	3301      	adds	r3, #1
 8002790:	6323      	str	r3, [r4, #48]	; 0x30
 8002792:	8ee3      	ldrh	r3, [r4, #54]	; 0x36
 8002794:	3b01      	subs	r3, #1
 8002796:	b29b      	uxth	r3, r3
 8002798:	86e3      	strh	r3, [r4, #54]	; 0x36
 800279a:	4647      	mov	r7, r8
 800279c:	e7c7      	b.n	800272e <HAL_SPI_TransmitReceive+0x168>
 800279e:	2d00      	cmp	r5, #0
 80027a0:	d1e0      	bne.n	8002764 <HAL_SPI_TransmitReceive+0x19e>
 80027a2:	2301      	movs	r3, #1
 80027a4:	f884 3051 	strb.w	r3, [r4, #81]	; 0x51
 80027a8:	2003      	movs	r0, #3
 80027aa:	e019      	b.n	80027e0 <HAL_SPI_TransmitReceive+0x21a>
 80027ac:	4632      	mov	r2, r6
 80027ae:	4629      	mov	r1, r5
 80027b0:	4620      	mov	r0, r4
 80027b2:	f7ff fd81 	bl	80022b8 <SPI_EndRxTxTransaction>
 80027b6:	b970      	cbnz	r0, 80027d6 <HAL_SPI_TransmitReceive+0x210>
 80027b8:	68a3      	ldr	r3, [r4, #8]
 80027ba:	b933      	cbnz	r3, 80027ca <HAL_SPI_TransmitReceive+0x204>
 80027bc:	9301      	str	r3, [sp, #4]
 80027be:	6823      	ldr	r3, [r4, #0]
 80027c0:	68da      	ldr	r2, [r3, #12]
 80027c2:	9201      	str	r2, [sp, #4]
 80027c4:	689b      	ldr	r3, [r3, #8]
 80027c6:	9301      	str	r3, [sp, #4]
 80027c8:	9b01      	ldr	r3, [sp, #4]
 80027ca:	6d63      	ldr	r3, [r4, #84]	; 0x54
 80027cc:	b9c3      	cbnz	r3, 8002800 <HAL_SPI_TransmitReceive+0x23a>
 80027ce:	2301      	movs	r3, #1
 80027d0:	f884 3051 	strb.w	r3, [r4, #81]	; 0x51
 80027d4:	e004      	b.n	80027e0 <HAL_SPI_TransmitReceive+0x21a>
 80027d6:	2320      	movs	r3, #32
 80027d8:	6563      	str	r3, [r4, #84]	; 0x54
 80027da:	2001      	movs	r0, #1
 80027dc:	e000      	b.n	80027e0 <HAL_SPI_TransmitReceive+0x21a>
 80027de:	2002      	movs	r0, #2
 80027e0:	2300      	movs	r3, #0
 80027e2:	f884 3050 	strb.w	r3, [r4, #80]	; 0x50
 80027e6:	b003      	add	sp, #12
 80027e8:	e8bd 83f0 	ldmia.w	sp!, {r4, r5, r6, r7, r8, r9, pc}
 80027ec:	2002      	movs	r0, #2
 80027ee:	e7f7      	b.n	80027e0 <HAL_SPI_TransmitReceive+0x21a>
 80027f0:	2002      	movs	r0, #2
 80027f2:	e7f5      	b.n	80027e0 <HAL_SPI_TransmitReceive+0x21a>
 80027f4:	2001      	movs	r0, #1
 80027f6:	e7f3      	b.n	80027e0 <HAL_SPI_TransmitReceive+0x21a>
 80027f8:	2001      	movs	r0, #1
 80027fa:	e7f1      	b.n	80027e0 <HAL_SPI_TransmitReceive+0x21a>
 80027fc:	2001      	movs	r0, #1
 80027fe:	e7ef      	b.n	80027e0 <HAL_SPI_TransmitReceive+0x21a>
 8002800:	2001      	movs	r0, #1
 8002802:	e7ed      	b.n	80027e0 <HAL_SPI_TransmitReceive+0x21a>
 8002804:	2002      	movs	r0, #2
 8002806:	e7ee      	b.n	80027e6 <HAL_SPI_TransmitReceive+0x220>

08002808 <HAL_SPI_Receive>:
 8002808:	e92d 43f0 	stmdb	sp!, {r4, r5, r6, r7, r8, r9, lr}
 800280c:	b083      	sub	sp, #12
 800280e:	4604      	mov	r4, r0
 8002810:	f890 5051 	ldrb.w	r5, [r0, #81]	; 0x51
 8002814:	b2ed      	uxtb	r5, r5
 8002816:	2d01      	cmp	r5, #1
 8002818:	f040 80b7 	bne.w	800298a <HAL_SPI_Receive+0x182>
 800281c:	4688      	mov	r8, r1
 800281e:	4691      	mov	r9, r2
 8002820:	461e      	mov	r6, r3
 8002822:	6843      	ldr	r3, [r0, #4]
 8002824:	f5b3 7f82 	cmp.w	r3, #260	; 0x104
 8002828:	d045      	beq.n	80028b6 <HAL_SPI_Receive+0xae>
 800282a:	f894 3050 	ldrb.w	r3, [r4, #80]	; 0x50
 800282e:	2b01      	cmp	r3, #1
 8002830:	f000 80b3 	beq.w	800299a <HAL_SPI_Receive+0x192>
 8002834:	2301      	movs	r3, #1
 8002836:	f884 3050 	strb.w	r3, [r4, #80]	; 0x50
 800283a:	f7fe fcf1 	bl	8001220 <HAL_GetTick>
 800283e:	4607      	mov	r7, r0
 8002840:	f1b8 0f00 	cmp.w	r8, #0
 8002844:	f000 80a2 	beq.w	800298c <HAL_SPI_Receive+0x184>
 8002848:	f1b9 0f00 	cmp.w	r9, #0
 800284c:	f000 809e 	beq.w	800298c <HAL_SPI_Receive+0x184>
 8002850:	2304      	movs	r3, #4
 8002852:	f884 3051 	strb.w	r3, [r4, #81]	; 0x51
 8002856:	2300      	movs	r3, #0
 8002858:	6563      	str	r3, [r4, #84]	; 0x54
 800285a:	f8c4 8038 	str.w	r8, [r4, #56]	; 0x38
 800285e:	f8a4 903c 	strh.w	r9, [r4, #60]	; 0x3c
 8002862:	f8a4 903e 	strh.w	r9, [r4, #62]	; 0x3e
 8002866:	6323      	str	r3, [r4, #48]	; 0x30
 8002868:	86a3      	strh	r3, [r4, #52]	; 0x34
 800286a:	86e3      	strh	r3, [r4, #54]	; 0x36
 800286c:	6423      	str	r3, [r4, #64]	; 0x40
 800286e:	6463      	str	r3, [r4, #68]	; 0x44
 8002870:	68a3      	ldr	r3, [r4, #8]
 8002872:	f5b3 4f00 	cmp.w	r3, #32768	; 0x8000
 8002876:	d02b      	beq.n	80028d0 <HAL_SPI_Receive+0xc8>
 8002878:	6823      	ldr	r3, [r4, #0]
 800287a:	681a      	ldr	r2, [r3, #0]
 800287c:	f012 0f40 	tst.w	r2, #64	; 0x40
 8002880:	d103      	bne.n	800288a <HAL_SPI_Receive+0x82>
 8002882:	681a      	ldr	r2, [r3, #0]
 8002884:	f042 0240 	orr.w	r2, r2, #64	; 0x40
 8002888:	601a      	str	r2, [r3, #0]
 800288a:	68e3      	ldr	r3, [r4, #12]
 800288c:	b35b      	cbz	r3, 80028e6 <HAL_SPI_Receive+0xde>
 800288e:	8fe3      	ldrh	r3, [r4, #62]	; 0x3e
 8002890:	b29b      	uxth	r3, r3
 8002892:	2b00      	cmp	r3, #0
 8002894:	d15e      	bne.n	8002954 <HAL_SPI_Receive+0x14c>
 8002896:	463a      	mov	r2, r7
 8002898:	4631      	mov	r1, r6
 800289a:	4620      	mov	r0, r4
 800289c:	f7ff fd1e 	bl	80022dc <SPI_EndRxTransaction>
 80028a0:	b108      	cbz	r0, 80028a6 <HAL_SPI_Receive+0x9e>
 80028a2:	2320      	movs	r3, #32
 80028a4:	6563      	str	r3, [r4, #84]	; 0x54
 80028a6:	6d63      	ldr	r3, [r4, #84]	; 0x54
 80028a8:	2b00      	cmp	r3, #0
 80028aa:	d16f      	bne.n	800298c <HAL_SPI_Receive+0x184>
 80028ac:	2301      	movs	r3, #1
 80028ae:	f884 3051 	strb.w	r3, [r4, #81]	; 0x51
 80028b2:	2500      	movs	r5, #0
 80028b4:	e06a      	b.n	800298c <HAL_SPI_Receive+0x184>
 80028b6:	6883      	ldr	r3, [r0, #8]
 80028b8:	2b00      	cmp	r3, #0
 80028ba:	d1b6      	bne.n	800282a <HAL_SPI_Receive+0x22>
 80028bc:	2304      	movs	r3, #4
 80028be:	f880 3051 	strb.w	r3, [r0, #81]	; 0x51
 80028c2:	9600      	str	r6, [sp, #0]
 80028c4:	4613      	mov	r3, r2
 80028c6:	460a      	mov	r2, r1
 80028c8:	f7ff fe7d 	bl	80025c6 <HAL_SPI_TransmitReceive>
 80028cc:	4605      	mov	r5, r0
 80028ce:	e060      	b.n	8002992 <HAL_SPI_Receive+0x18a>
 80028d0:	6822      	ldr	r2, [r4, #0]
 80028d2:	6813      	ldr	r3, [r2, #0]
 80028d4:	f023 0340 	bic.w	r3, r3, #64	; 0x40
 80028d8:	6013      	str	r3, [r2, #0]
 80028da:	6822      	ldr	r2, [r4, #0]
 80028dc:	6813      	ldr	r3, [r2, #0]
 80028de:	f423 4380 	bic.w	r3, r3, #16384	; 0x4000
 80028e2:	6013      	str	r3, [r2, #0]
 80028e4:	e7c8      	b.n	8002878 <HAL_SPI_Receive+0x70>
 80028e6:	8fe3      	ldrh	r3, [r4, #62]	; 0x3e
 80028e8:	b29b      	uxth	r3, r3
 80028ea:	b963      	cbnz	r3, 8002906 <HAL_SPI_Receive+0xfe>
 80028ec:	e7d3      	b.n	8002896 <HAL_SPI_Receive+0x8e>
 80028ee:	f7fe fc97 	bl	8001220 <HAL_GetTick>
 80028f2:	1bc0      	subs	r0, r0, r7
 80028f4:	42b0      	cmp	r0, r6
 80028f6:	d31a      	bcc.n	800292e <HAL_SPI_Receive+0x126>
 80028f8:	f1b6 3fff 	cmp.w	r6, #4294967295
 80028fc:	d119      	bne.n	8002932 <HAL_SPI_Receive+0x12a>
 80028fe:	8fe3      	ldrh	r3, [r4, #62]	; 0x3e
 8002900:	b29b      	uxth	r3, r3
 8002902:	2b00      	cmp	r3, #0
 8002904:	d0c7      	beq.n	8002896 <HAL_SPI_Receive+0x8e>
 8002906:	6823      	ldr	r3, [r4, #0]
 8002908:	689a      	ldr	r2, [r3, #8]
 800290a:	f012 0f01 	tst.w	r2, #1
 800290e:	d0ee      	beq.n	80028ee <HAL_SPI_Receive+0xe6>
 8002910:	6ba2      	ldr	r2, [r4, #56]	; 0x38
 8002912:	7b1b      	ldrb	r3, [r3, #12]
 8002914:	7013      	strb	r3, [r2, #0]
 8002916:	6ba3      	ldr	r3, [r4, #56]	; 0x38
 8002918:	3301      	adds	r3, #1
 800291a:	63a3      	str	r3, [r4, #56]	; 0x38
 800291c:	f8b4 c03e 	ldrh.w	ip, [r4, #62]	; 0x3e
 8002920:	f10c 3cff 	add.w	ip, ip, #4294967295
 8002924:	fa1f fc8c 	uxth.w	ip, ip
 8002928:	f8a4 c03e 	strh.w	ip, [r4, #62]	; 0x3e
 800292c:	e7e7      	b.n	80028fe <HAL_SPI_Receive+0xf6>
 800292e:	2e00      	cmp	r6, #0
 8002930:	d1e5      	bne.n	80028fe <HAL_SPI_Receive+0xf6>
 8002932:	2301      	movs	r3, #1
 8002934:	f884 3051 	strb.w	r3, [r4, #81]	; 0x51
 8002938:	2503      	movs	r5, #3
 800293a:	e027      	b.n	800298c <HAL_SPI_Receive+0x184>
 800293c:	f7fe fc70 	bl	8001220 <HAL_GetTick>
 8002940:	1bc0      	subs	r0, r0, r7
 8002942:	42b0      	cmp	r0, r6
 8002944:	d31a      	bcc.n	800297c <HAL_SPI_Receive+0x174>
 8002946:	f1b6 3fff 	cmp.w	r6, #4294967295
 800294a:	d119      	bne.n	8002980 <HAL_SPI_Receive+0x178>
 800294c:	8fe3      	ldrh	r3, [r4, #62]	; 0x3e
 800294e:	b29b      	uxth	r3, r3
 8002950:	2b00      	cmp	r3, #0
 8002952:	d0a0      	beq.n	8002896 <HAL_SPI_Receive+0x8e>
 8002954:	6823      	ldr	r3, [r4, #0]
 8002956:	689a      	ldr	r2, [r3, #8]
 8002958:	f012 0f01 	tst.w	r2, #1
 800295c:	d0ee      	beq.n	800293c <HAL_SPI_Receive+0x134>
 800295e:	68da      	ldr	r2, [r3, #12]
 8002960:	6ba3      	ldr	r3, [r4, #56]	; 0x38
 8002962:	801a      	strh	r2, [r3, #0]
 8002964:	6ba3      	ldr	r3, [r4, #56]	; 0x38
 8002966:	3302      	adds	r3, #2
 8002968:	63a3      	str	r3, [r4, #56]	; 0x38
 800296a:	f8b4 c03e 	ldrh.w	ip, [r4, #62]	; 0x3e
 800296e:	f10c 3cff 	add.w	ip, ip, #4294967295
 8002972:	fa1f fc8c 	uxth.w	ip, ip
 8002976:	f8a4 c03e 	strh.w	ip, [r4, #62]	; 0x3e
 800297a:	e7e7      	b.n	800294c <HAL_SPI_Receive+0x144>
 800297c:	2e00      	cmp	r6, #0
 800297e:	d1e5      	bne.n	800294c <HAL_SPI_Receive+0x144>
 8002980:	2301      	movs	r3, #1
 8002982:	f884 3051 	strb.w	r3, [r4, #81]	; 0x51
 8002986:	2503      	movs	r5, #3
 8002988:	e000      	b.n	800298c <HAL_SPI_Receive+0x184>
 800298a:	2502      	movs	r5, #2
 800298c:	2300      	movs	r3, #0
 800298e:	f884 3050 	strb.w	r3, [r4, #80]	; 0x50
 8002992:	4628      	mov	r0, r5
 8002994:	b003      	add	sp, #12
 8002996:	e8bd 83f0 	ldmia.w	sp!, {r4, r5, r6, r7, r8, r9, pc}
 800299a:	2502      	movs	r5, #2
 800299c:	e7f9      	b.n	8002992 <HAL_SPI_Receive+0x18a>
	...

080029a0 <TIM_OC1_SetConfig>:
 80029a0:	b470      	push	{r4, r5, r6}
 80029a2:	6a03      	ldr	r3, [r0, #32]
 80029a4:	6a02      	ldr	r2, [r0, #32]
 80029a6:	f022 0201 	bic.w	r2, r2, #1
 80029aa:	6202      	str	r2, [r0, #32]
 80029ac:	6844      	ldr	r4, [r0, #4]
 80029ae:	6982      	ldr	r2, [r0, #24]
 80029b0:	f022 0273 	bic.w	r2, r2, #115	; 0x73
 80029b4:	680d      	ldr	r5, [r1, #0]
 80029b6:	432a      	orrs	r2, r5
 80029b8:	f023 0302 	bic.w	r3, r3, #2
 80029bc:	688d      	ldr	r5, [r1, #8]
 80029be:	432b      	orrs	r3, r5
 80029c0:	4d0b      	ldr	r5, [pc, #44]	; (80029f0 <TIM_OC1_SetConfig+0x50>)
 80029c2:	42a8      	cmp	r0, r5
 80029c4:	d006      	beq.n	80029d4 <TIM_OC1_SetConfig+0x34>
 80029c6:	6044      	str	r4, [r0, #4]
 80029c8:	6182      	str	r2, [r0, #24]
 80029ca:	684a      	ldr	r2, [r1, #4]
 80029cc:	6342      	str	r2, [r0, #52]	; 0x34
 80029ce:	6203      	str	r3, [r0, #32]
 80029d0:	bc70      	pop	{r4, r5, r6}
 80029d2:	4770      	bx	lr
 80029d4:	f023 0308 	bic.w	r3, r3, #8
 80029d8:	68cd      	ldr	r5, [r1, #12]
 80029da:	432b      	orrs	r3, r5
 80029dc:	f023 0304 	bic.w	r3, r3, #4
 80029e0:	f424 7440 	bic.w	r4, r4, #768	; 0x300
 80029e4:	694d      	ldr	r5, [r1, #20]
 80029e6:	698e      	ldr	r6, [r1, #24]
 80029e8:	4335      	orrs	r5, r6
 80029ea:	432c      	orrs	r4, r5
 80029ec:	e7eb      	b.n	80029c6 <TIM_OC1_SetConfig+0x26>
 80029ee:	bf00      	nop
 80029f0:	40012c00 	.word	0x40012c00

080029f4 <TIM_OC3_SetConfig>:
 80029f4:	b470      	push	{r4, r5, r6}
 80029f6:	6a03      	ldr	r3, [r0, #32]
 80029f8:	6a02      	ldr	r2, [r0, #32]
 80029fa:	f422 7280 	bic.w	r2, r2, #256	; 0x100
 80029fe:	6202      	str	r2, [r0, #32]
 8002a00:	6844      	ldr	r4, [r0, #4]
 8002a02:	69c2      	ldr	r2, [r0, #28]
 8002a04:	f022 0273 	bic.w	r2, r2, #115	; 0x73
 8002a08:	680d      	ldr	r5, [r1, #0]
 8002a0a:	432a      	orrs	r2, r5
 8002a0c:	f423 7300 	bic.w	r3, r3, #512	; 0x200
 8002a10:	688d      	ldr	r5, [r1, #8]
 8002a12:	ea43 2305 	orr.w	r3, r3, r5, lsl #8
 8002a16:	4d0c      	ldr	r5, [pc, #48]	; (8002a48 <TIM_OC3_SetConfig+0x54>)
 8002a18:	42a8      	cmp	r0, r5
 8002a1a:	d006      	beq.n	8002a2a <TIM_OC3_SetConfig+0x36>
 8002a1c:	6044      	str	r4, [r0, #4]
 8002a1e:	61c2      	str	r2, [r0, #28]
 8002a20:	684a      	ldr	r2, [r1, #4]
 8002a22:	63c2      	str	r2, [r0, #60]	; 0x3c
 8002a24:	6203      	str	r3, [r0, #32]
 8002a26:	bc70      	pop	{r4, r5, r6}
 8002a28:	4770      	bx	lr
 8002a2a:	f423 6300 	bic.w	r3, r3, #2048	; 0x800
 8002a2e:	68cd      	ldr	r5, [r1, #12]
 8002a30:	ea43 2305 	orr.w	r3, r3, r5, lsl #8
 8002a34:	f423 6380 	bic.w	r3, r3, #1024	; 0x400
 8002a38:	f424 5440 	bic.w	r4, r4, #12288	; 0x3000
 8002a3c:	694d      	ldr	r5, [r1, #20]
 8002a3e:	698e      	ldr	r6, [r1, #24]
 8002a40:	4335      	orrs	r5, r6
 8002a42:	ea44 1405 	orr.w	r4, r4, r5, lsl #4
 8002a46:	e7e9      	b.n	8002a1c <TIM_OC3_SetConfig+0x28>
 8002a48:	40012c00 	.word	0x40012c00

08002a4c <TIM_OC4_SetConfig>:
 8002a4c:	b430      	push	{r4, r5}
 8002a4e:	6a03      	ldr	r3, [r0, #32]
 8002a50:	6a02      	ldr	r2, [r0, #32]
 8002a52:	f422 5280 	bic.w	r2, r2, #4096	; 0x1000
 8002a56:	6202      	str	r2, [r0, #32]
 8002a58:	6844      	ldr	r4, [r0, #4]
 8002a5a:	69c2      	ldr	r2, [r0, #28]
 8002a5c:	f422 42e6 	bic.w	r2, r2, #29440	; 0x7300
 8002a60:	680d      	ldr	r5, [r1, #0]
 8002a62:	ea42 2205 	orr.w	r2, r2, r5, lsl #8
 8002a66:	f423 5300 	bic.w	r3, r3, #8192	; 0x2000
 8002a6a:	688d      	ldr	r5, [r1, #8]
 8002a6c:	ea43 3305 	orr.w	r3, r3, r5, lsl #12
 8002a70:	4d07      	ldr	r5, [pc, #28]	; (8002a90 <TIM_OC4_SetConfig+0x44>)
 8002a72:	42a8      	cmp	r0, r5
 8002a74:	d006      	beq.n	8002a84 <TIM_OC4_SetConfig+0x38>
 8002a76:	6044      	str	r4, [r0, #4]
 8002a78:	61c2      	str	r2, [r0, #28]
 8002a7a:	684a      	ldr	r2, [r1, #4]
 8002a7c:	6402      	str	r2, [r0, #64]	; 0x40
 8002a7e:	6203      	str	r3, [r0, #32]
 8002a80:	bc30      	pop	{r4, r5}
 8002a82:	4770      	bx	lr
 8002a84:	f424 4480 	bic.w	r4, r4, #16384	; 0x4000
 8002a88:	694d      	ldr	r5, [r1, #20]
 8002a8a:	ea44 1485 	orr.w	r4, r4, r5, lsl #6
 8002a8e:	e7f2      	b.n	8002a76 <TIM_OC4_SetConfig+0x2a>
 8002a90:	40012c00 	.word	0x40012c00

08002a94 <HAL_TIM_PWM_MspInit>:
 8002a94:	4770      	bx	lr
	...

08002a98 <TIM_Base_SetConfig>:
 8002a98:	6803      	ldr	r3, [r0, #0]
 8002a9a:	4a25      	ldr	r2, [pc, #148]	; (8002b30 <TIM_Base_SetConfig+0x98>)
 8002a9c:	4290      	cmp	r0, r2
 8002a9e:	d014      	beq.n	8002aca <TIM_Base_SetConfig+0x32>
 8002aa0:	f1b0 4f80 	cmp.w	r0, #1073741824	; 0x40000000
 8002aa4:	d026      	beq.n	8002af4 <TIM_Base_SetConfig+0x5c>
 8002aa6:	f5a2 3294 	sub.w	r2, r2, #75776	; 0x12800
 8002aaa:	4290      	cmp	r0, r2
 8002aac:	d036      	beq.n	8002b1c <TIM_Base_SetConfig+0x84>
 8002aae:	f502 6280 	add.w	r2, r2, #1024	; 0x400
 8002ab2:	4290      	cmp	r0, r2
 8002ab4:	d037      	beq.n	8002b26 <TIM_Base_SetConfig+0x8e>
 8002ab6:	f023 0380 	bic.w	r3, r3, #128	; 0x80
 8002aba:	694a      	ldr	r2, [r1, #20]
 8002abc:	4313      	orrs	r3, r2
 8002abe:	6003      	str	r3, [r0, #0]
 8002ac0:	688b      	ldr	r3, [r1, #8]
 8002ac2:	62c3      	str	r3, [r0, #44]	; 0x2c
 8002ac4:	680b      	ldr	r3, [r1, #0]
 8002ac6:	6283      	str	r3, [r0, #40]	; 0x28
 8002ac8:	e025      	b.n	8002b16 <TIM_Base_SetConfig+0x7e>
 8002aca:	f023 0370 	bic.w	r3, r3, #112	; 0x70
 8002ace:	684a      	ldr	r2, [r1, #4]
 8002ad0:	4313      	orrs	r3, r2
 8002ad2:	f423 7340 	bic.w	r3, r3, #768	; 0x300
 8002ad6:	68ca      	ldr	r2, [r1, #12]
 8002ad8:	4313      	orrs	r3, r2
 8002ada:	f023 0380 	bic.w	r3, r3, #128	; 0x80
 8002ade:	694a      	ldr	r2, [r1, #20]
 8002ae0:	4313      	orrs	r3, r2
 8002ae2:	6003      	str	r3, [r0, #0]
 8002ae4:	688b      	ldr	r3, [r1, #8]
 8002ae6:	62c3      	str	r3, [r0, #44]	; 0x2c
 8002ae8:	680b      	ldr	r3, [r1, #0]
 8002aea:	6283      	str	r3, [r0, #40]	; 0x28
 8002aec:	690a      	ldr	r2, [r1, #16]
 8002aee:	4b10      	ldr	r3, [pc, #64]	; (8002b30 <TIM_Base_SetConfig+0x98>)
 8002af0:	631a      	str	r2, [r3, #48]	; 0x30
 8002af2:	e010      	b.n	8002b16 <TIM_Base_SetConfig+0x7e>
 8002af4:	f023 0370 	bic.w	r3, r3, #112	; 0x70
 8002af8:	684a      	ldr	r2, [r1, #4]
 8002afa:	4313      	orrs	r3, r2
 8002afc:	f423 7340 	bic.w	r3, r3, #768	; 0x300
 8002b00:	68ca      	ldr	r2, [r1, #12]
 8002b02:	4313      	orrs	r3, r2
 8002b04:	f023 0380 	bic.w	r3, r3, #128	; 0x80
 8002b08:	694a      	ldr	r2, [r1, #20]
 8002b0a:	4313      	orrs	r3, r2
 8002b0c:	6003      	str	r3, [r0, #0]
 8002b0e:	688b      	ldr	r3, [r1, #8]
 8002b10:	62c3      	str	r3, [r0, #44]	; 0x2c
 8002b12:	680b      	ldr	r3, [r1, #0]
 8002b14:	6283      	str	r3, [r0, #40]	; 0x28
 8002b16:	2301      	movs	r3, #1
 8002b18:	6143      	str	r3, [r0, #20]
 8002b1a:	4770      	bx	lr
 8002b1c:	f023 0370 	bic.w	r3, r3, #112	; 0x70
 8002b20:	684a      	ldr	r2, [r1, #4]
 8002b22:	4313      	orrs	r3, r2
 8002b24:	e7ea      	b.n	8002afc <TIM_Base_SetConfig+0x64>
 8002b26:	f023 0370 	bic.w	r3, r3, #112	; 0x70
 8002b2a:	684a      	ldr	r2, [r1, #4]
 8002b2c:	4313      	orrs	r3, r2
 8002b2e:	e7e5      	b.n	8002afc <TIM_Base_SetConfig+0x64>
 8002b30:	40012c00 	.word	0x40012c00

08002b34 <HAL_TIM_Base_Init>:
 8002b34:	b340      	cbz	r0, 8002b88 <HAL_TIM_Base_Init+0x54>
 8002b36:	b510      	push	{r4, lr}
 8002b38:	4604      	mov	r4, r0
 8002b3a:	f890 303d 	ldrb.w	r3, [r0, #61]	; 0x3d
 8002b3e:	b1f3      	cbz	r3, 8002b7e <HAL_TIM_Base_Init+0x4a>
 8002b40:	2302      	movs	r3, #2
 8002b42:	f884 303d 	strb.w	r3, [r4, #61]	; 0x3d
 8002b46:	4621      	mov	r1, r4
 8002b48:	f851 0b04 	ldr.w	r0, [r1], #4
 8002b4c:	f7ff ffa4 	bl	8002a98 <TIM_Base_SetConfig>
 8002b50:	2301      	movs	r3, #1
 8002b52:	f884 3046 	strb.w	r3, [r4, #70]	; 0x46
 8002b56:	f884 303e 	strb.w	r3, [r4, #62]	; 0x3e
 8002b5a:	f884 303f 	strb.w	r3, [r4, #63]	; 0x3f
 8002b5e:	f884 3040 	strb.w	r3, [r4, #64]	; 0x40
 8002b62:	f884 3041 	strb.w	r3, [r4, #65]	; 0x41
 8002b66:	f884 3042 	strb.w	r3, [r4, #66]	; 0x42
 8002b6a:	f884 3043 	strb.w	r3, [r4, #67]	; 0x43
 8002b6e:	f884 3044 	strb.w	r3, [r4, #68]	; 0x44
 8002b72:	f884 3045 	strb.w	r3, [r4, #69]	; 0x45
 8002b76:	f884 303d 	strb.w	r3, [r4, #61]	; 0x3d
 8002b7a:	2000      	movs	r0, #0
 8002b7c:	bd10      	pop	{r4, pc}
 8002b7e:	f880 303c 	strb.w	r3, [r0, #60]	; 0x3c
 8002b82:	f7fe f987 	bl	8000e94 <HAL_TIM_Base_MspInit>
 8002b86:	e7db      	b.n	8002b40 <HAL_TIM_Base_Init+0xc>
 8002b88:	2001      	movs	r0, #1
 8002b8a:	4770      	bx	lr

08002b8c <HAL_TIM_PWM_Init>:
 8002b8c:	b340      	cbz	r0, 8002be0 <HAL_TIM_PWM_Init+0x54>
 8002b8e:	b510      	push	{r4, lr}
 8002b90:	4604      	mov	r4, r0
 8002b92:	f890 303d 	ldrb.w	r3, [r0, #61]	; 0x3d
 8002b96:	b1f3      	cbz	r3, 8002bd6 <HAL_TIM_PWM_Init+0x4a>
 8002b98:	2302      	movs	r3, #2
 8002b9a:	f884 303d 	strb.w	r3, [r4, #61]	; 0x3d
 8002b9e:	4621      	mov	r1, r4
 8002ba0:	f851 0b04 	ldr.w	r0, [r1], #4
 8002ba4:	f7ff ff78 	bl	8002a98 <TIM_Base_SetConfig>
 8002ba8:	2301      	movs	r3, #1
 8002baa:	f884 3046 	strb.w	r3, [r4, #70]	; 0x46
 8002bae:	f884 303e 	strb.w	r3, [r4, #62]	; 0x3e
 8002bb2:	f884 303f 	strb.w	r3, [r4, #63]	; 0x3f
 8002bb6:	f884 3040 	strb.w	r3, [r4, #64]	; 0x40
 8002bba:	f884 3041 	strb.w	r3, [r4, #65]	; 0x41
 8002bbe:	f884 3042 	strb.w	r3, [r4, #66]	; 0x42
 8002bc2:	f884 3043 	strb.w	r3, [r4, #67]	; 0x43
 8002bc6:	f884 3044 	strb.w	r3, [r4, #68]	; 0x44
 8002bca:	f884 3045 	strb.w	r3, [r4, #69]	; 0x45
 8002bce:	f884 303d 	strb.w	r3, [r4, #61]	; 0x3d
 8002bd2:	2000      	movs	r0, #0
 8002bd4:	bd10      	pop	{r4, pc}
 8002bd6:	f880 303c 	strb.w	r3, [r0, #60]	; 0x3c
 8002bda:	f7ff ff5b 	bl	8002a94 <HAL_TIM_PWM_MspInit>
 8002bde:	e7db      	b.n	8002b98 <HAL_TIM_PWM_Init+0xc>
 8002be0:	2001      	movs	r0, #1
 8002be2:	4770      	bx	lr

08002be4 <TIM_OC2_SetConfig>:
 8002be4:	b470      	push	{r4, r5, r6}
 8002be6:	6a03      	ldr	r3, [r0, #32]
 8002be8:	6a02      	ldr	r2, [r0, #32]
 8002bea:	f022 0210 	bic.w	r2, r2, #16
 8002bee:	6202      	str	r2, [r0, #32]
 8002bf0:	6844      	ldr	r4, [r0, #4]
 8002bf2:	6982      	ldr	r2, [r0, #24]
 8002bf4:	f422 42e6 	bic.w	r2, r2, #29440	; 0x7300
 8002bf8:	680d      	ldr	r5, [r1, #0]
 8002bfa:	ea42 2205 	orr.w	r2, r2, r5, lsl #8
 8002bfe:	f023 0320 	bic.w	r3, r3, #32
 8002c02:	688d      	ldr	r5, [r1, #8]
 8002c04:	ea43 1305 	orr.w	r3, r3, r5, lsl #4
 8002c08:	4d0c      	ldr	r5, [pc, #48]	; (8002c3c <TIM_OC2_SetConfig+0x58>)
 8002c0a:	42a8      	cmp	r0, r5
 8002c0c:	d006      	beq.n	8002c1c <TIM_OC2_SetConfig+0x38>
 8002c0e:	6044      	str	r4, [r0, #4]
 8002c10:	6182      	str	r2, [r0, #24]
 8002c12:	684a      	ldr	r2, [r1, #4]
 8002c14:	6382      	str	r2, [r0, #56]	; 0x38
 8002c16:	6203      	str	r3, [r0, #32]
 8002c18:	bc70      	pop	{r4, r5, r6}
 8002c1a:	4770      	bx	lr
 8002c1c:	f023 0380 	bic.w	r3, r3, #128	; 0x80
 8002c20:	68cd      	ldr	r5, [r1, #12]
 8002c22:	ea43 1305 	orr.w	r3, r3, r5, lsl #4
 8002c26:	f023 0340 	bic.w	r3, r3, #64	; 0x40
 8002c2a:	f424 6440 	bic.w	r4, r4, #3072	; 0xc00
 8002c2e:	694d      	ldr	r5, [r1, #20]
 8002c30:	698e      	ldr	r6, [r1, #24]
 8002c32:	4335      	orrs	r5, r6
 8002c34:	ea44 0485 	orr.w	r4, r4, r5, lsl #2
 8002c38:	e7e9      	b.n	8002c0e <TIM_OC2_SetConfig+0x2a>
 8002c3a:	bf00      	nop
 8002c3c:	40012c00 	.word	0x40012c00

08002c40 <HAL_TIM_PWM_ConfigChannel>:
 8002c40:	b538      	push	{r3, r4, r5, lr}
 8002c42:	f890 303c 	ldrb.w	r3, [r0, #60]	; 0x3c
 8002c46:	2b01      	cmp	r3, #1
 8002c48:	d066      	beq.n	8002d18 <HAL_TIM_PWM_ConfigChannel+0xd8>
 8002c4a:	4604      	mov	r4, r0
 8002c4c:	460d      	mov	r5, r1
 8002c4e:	2301      	movs	r3, #1
 8002c50:	f880 303c 	strb.w	r3, [r0, #60]	; 0x3c
 8002c54:	2a0c      	cmp	r2, #12
 8002c56:	d85a      	bhi.n	8002d0e <HAL_TIM_PWM_ConfigChannel+0xce>
 8002c58:	e8df f002 	tbb	[pc, r2]
 8002c5c:	59595907 	.word	0x59595907
 8002c60:	5959591b 	.word	0x5959591b
 8002c64:	59595930 	.word	0x59595930
 8002c68:	44          	.byte	0x44
 8002c69:	00          	.byte	0x00
 8002c6a:	6800      	ldr	r0, [r0, #0]
 8002c6c:	f7ff fe98 	bl	80029a0 <TIM_OC1_SetConfig>
 8002c70:	6822      	ldr	r2, [r4, #0]
 8002c72:	6993      	ldr	r3, [r2, #24]
 8002c74:	f043 0308 	orr.w	r3, r3, #8
 8002c78:	6193      	str	r3, [r2, #24]
 8002c7a:	6822      	ldr	r2, [r4, #0]
 8002c7c:	6993      	ldr	r3, [r2, #24]
 8002c7e:	f023 0304 	bic.w	r3, r3, #4
 8002c82:	6193      	str	r3, [r2, #24]
 8002c84:	6822      	ldr	r2, [r4, #0]
 8002c86:	6993      	ldr	r3, [r2, #24]
 8002c88:	6929      	ldr	r1, [r5, #16]
 8002c8a:	430b      	orrs	r3, r1
 8002c8c:	6193      	str	r3, [r2, #24]
 8002c8e:	2000      	movs	r0, #0
 8002c90:	e03e      	b.n	8002d10 <HAL_TIM_PWM_ConfigChannel+0xd0>
 8002c92:	6800      	ldr	r0, [r0, #0]
 8002c94:	f7ff ffa6 	bl	8002be4 <TIM_OC2_SetConfig>
 8002c98:	6822      	ldr	r2, [r4, #0]
 8002c9a:	6993      	ldr	r3, [r2, #24]
 8002c9c:	f443 6300 	orr.w	r3, r3, #2048	; 0x800
 8002ca0:	6193      	str	r3, [r2, #24]
 8002ca2:	6822      	ldr	r2, [r4, #0]
 8002ca4:	6993      	ldr	r3, [r2, #24]
 8002ca6:	f423 6380 	bic.w	r3, r3, #1024	; 0x400
 8002caa:	6193      	str	r3, [r2, #24]
 8002cac:	6822      	ldr	r2, [r4, #0]
 8002cae:	6993      	ldr	r3, [r2, #24]
 8002cb0:	6929      	ldr	r1, [r5, #16]
 8002cb2:	ea43 2301 	orr.w	r3, r3, r1, lsl #8
 8002cb6:	6193      	str	r3, [r2, #24]
 8002cb8:	2000      	movs	r0, #0
 8002cba:	e029      	b.n	8002d10 <HAL_TIM_PWM_ConfigChannel+0xd0>
 8002cbc:	6800      	ldr	r0, [r0, #0]
 8002cbe:	f7ff fe99 	bl	80029f4 <TIM_OC3_SetConfig>
 8002cc2:	6822      	ldr	r2, [r4, #0]
 8002cc4:	69d3      	ldr	r3, [r2, #28]
 8002cc6:	f043 0308 	orr.w	r3, r3, #8
 8002cca:	61d3      	str	r3, [r2, #28]
 8002ccc:	6822      	ldr	r2, [r4, #0]
 8002cce:	69d3      	ldr	r3, [r2, #28]
 8002cd0:	f023 0304 	bic.w	r3, r3, #4
 8002cd4:	61d3      	str	r3, [r2, #28]
 8002cd6:	6822      	ldr	r2, [r4, #0]
 8002cd8:	69d3      	ldr	r3, [r2, #28]
 8002cda:	6929      	ldr	r1, [r5, #16]
 8002cdc:	430b      	orrs	r3, r1
 8002cde:	61d3      	str	r3, [r2, #28]
 8002ce0:	2000      	movs	r0, #0
 8002ce2:	e015      	b.n	8002d10 <HAL_TIM_PWM_ConfigChannel+0xd0>
 8002ce4:	6800      	ldr	r0, [r0, #0]
 8002ce6:	f7ff feb1 	bl	8002a4c <TIM_OC4_SetConfig>
 8002cea:	6822      	ldr	r2, [r4, #0]
 8002cec:	69d3      	ldr	r3, [r2, #28]
 8002cee:	f443 6300 	orr.w	r3, r3, #2048	; 0x800
 8002cf2:	61d3      	str	r3, [r2, #28]
 8002cf4:	6822      	ldr	r2, [r4, #0]
 8002cf6:	69d3      	ldr	r3, [r2, #28]
 8002cf8:	f423 6380 	bic.w	r3, r3, #1024	; 0x400
 8002cfc:	61d3      	str	r3, [r2, #28]
 8002cfe:	6822      	ldr	r2, [r4, #0]
 8002d00:	69d3      	ldr	r3, [r2, #28]
 8002d02:	6929      	ldr	r1, [r5, #16]
 8002d04:	ea43 2301 	orr.w	r3, r3, r1, lsl #8
 8002d08:	61d3      	str	r3, [r2, #28]
 8002d0a:	2000      	movs	r0, #0
 8002d0c:	e000      	b.n	8002d10 <HAL_TIM_PWM_ConfigChannel+0xd0>
 8002d0e:	2001      	movs	r0, #1
 8002d10:	2300      	movs	r3, #0
 8002d12:	f884 303c 	strb.w	r3, [r4, #60]	; 0x3c
 8002d16:	bd38      	pop	{r3, r4, r5, pc}
 8002d18:	2002      	movs	r0, #2
 8002d1a:	e7fc      	b.n	8002d16 <HAL_TIM_PWM_ConfigChannel+0xd6>

08002d1c <TIM_ETR_SetConfig>:
 8002d1c:	b410      	push	{r4}
 8002d1e:	6884      	ldr	r4, [r0, #8]
 8002d20:	f424 4c7f 	bic.w	ip, r4, #65280	; 0xff00
 8002d24:	430a      	orrs	r2, r1
 8002d26:	ea42 2203 	orr.w	r2, r2, r3, lsl #8
 8002d2a:	ea42 020c 	orr.w	r2, r2, ip
 8002d2e:	6082      	str	r2, [r0, #8]
 8002d30:	bc10      	pop	{r4}
 8002d32:	4770      	bx	lr

08002d34 <HAL_TIM_ConfigClockSource>:
 8002d34:	b538      	push	{r3, r4, r5, lr}
 8002d36:	f890 303c 	ldrb.w	r3, [r0, #60]	; 0x3c
 8002d3a:	2b01      	cmp	r3, #1
 8002d3c:	f000 80ad 	beq.w	8002e9a <HAL_TIM_ConfigClockSource+0x166>
 8002d40:	4604      	mov	r4, r0
 8002d42:	2301      	movs	r3, #1
 8002d44:	f880 303c 	strb.w	r3, [r0, #60]	; 0x3c
 8002d48:	2302      	movs	r3, #2
 8002d4a:	f880 303d 	strb.w	r3, [r0, #61]	; 0x3d
 8002d4e:	6802      	ldr	r2, [r0, #0]
 8002d50:	6893      	ldr	r3, [r2, #8]
 8002d52:	f423 437f 	bic.w	r3, r3, #65280	; 0xff00
 8002d56:	f023 0377 	bic.w	r3, r3, #119	; 0x77
 8002d5a:	6093      	str	r3, [r2, #8]
 8002d5c:	680b      	ldr	r3, [r1, #0]
 8002d5e:	2b60      	cmp	r3, #96	; 0x60
 8002d60:	d060      	beq.n	8002e24 <HAL_TIM_ConfigClockSource+0xf0>
 8002d62:	d83d      	bhi.n	8002de0 <HAL_TIM_ConfigClockSource+0xac>
 8002d64:	2b40      	cmp	r3, #64	; 0x40
 8002d66:	d079      	beq.n	8002e5c <HAL_TIM_ConfigClockSource+0x128>
 8002d68:	d91c      	bls.n	8002da4 <HAL_TIM_ConfigClockSource+0x70>
 8002d6a:	2b50      	cmp	r3, #80	; 0x50
 8002d6c:	d136      	bne.n	8002ddc <HAL_TIM_ConfigClockSource+0xa8>
 8002d6e:	6803      	ldr	r3, [r0, #0]
 8002d70:	6848      	ldr	r0, [r1, #4]
 8002d72:	68cd      	ldr	r5, [r1, #12]
 8002d74:	6a19      	ldr	r1, [r3, #32]
 8002d76:	6a1a      	ldr	r2, [r3, #32]
 8002d78:	f022 0201 	bic.w	r2, r2, #1
 8002d7c:	621a      	str	r2, [r3, #32]
 8002d7e:	699a      	ldr	r2, [r3, #24]
 8002d80:	f022 02f0 	bic.w	r2, r2, #240	; 0xf0
 8002d84:	ea42 1205 	orr.w	r2, r2, r5, lsl #4
 8002d88:	f021 010a 	bic.w	r1, r1, #10
 8002d8c:	4301      	orrs	r1, r0
 8002d8e:	619a      	str	r2, [r3, #24]
 8002d90:	6219      	str	r1, [r3, #32]
 8002d92:	6822      	ldr	r2, [r4, #0]
 8002d94:	6893      	ldr	r3, [r2, #8]
 8002d96:	f023 0370 	bic.w	r3, r3, #112	; 0x70
 8002d9a:	f043 0357 	orr.w	r3, r3, #87	; 0x57
 8002d9e:	6093      	str	r3, [r2, #8]
 8002da0:	2000      	movs	r0, #0
 8002da2:	e012      	b.n	8002dca <HAL_TIM_ConfigClockSource+0x96>
 8002da4:	2b20      	cmp	r3, #32
 8002da6:	d002      	beq.n	8002dae <HAL_TIM_ConfigClockSource+0x7a>
 8002da8:	d90b      	bls.n	8002dc2 <HAL_TIM_ConfigClockSource+0x8e>
 8002daa:	2b30      	cmp	r3, #48	; 0x30
 8002dac:	d114      	bne.n	8002dd8 <HAL_TIM_ConfigClockSource+0xa4>
 8002dae:	6821      	ldr	r1, [r4, #0]
 8002db0:	688a      	ldr	r2, [r1, #8]
 8002db2:	f022 0270 	bic.w	r2, r2, #112	; 0x70
 8002db6:	4313      	orrs	r3, r2
 8002db8:	f043 0307 	orr.w	r3, r3, #7
 8002dbc:	608b      	str	r3, [r1, #8]
 8002dbe:	2000      	movs	r0, #0
 8002dc0:	e003      	b.n	8002dca <HAL_TIM_ConfigClockSource+0x96>
 8002dc2:	f033 0210 	bics.w	r2, r3, #16
 8002dc6:	d0f2      	beq.n	8002dae <HAL_TIM_ConfigClockSource+0x7a>
 8002dc8:	2001      	movs	r0, #1
 8002dca:	2301      	movs	r3, #1
 8002dcc:	f884 303d 	strb.w	r3, [r4, #61]	; 0x3d
 8002dd0:	2300      	movs	r3, #0
 8002dd2:	f884 303c 	strb.w	r3, [r4, #60]	; 0x3c
 8002dd6:	bd38      	pop	{r3, r4, r5, pc}
 8002dd8:	2001      	movs	r0, #1
 8002dda:	e7f6      	b.n	8002dca <HAL_TIM_ConfigClockSource+0x96>
 8002ddc:	2001      	movs	r0, #1
 8002dde:	e7f4      	b.n	8002dca <HAL_TIM_ConfigClockSource+0x96>
 8002de0:	f5b3 5f80 	cmp.w	r3, #4096	; 0x1000
 8002de4:	d055      	beq.n	8002e92 <HAL_TIM_ConfigClockSource+0x15e>
 8002de6:	f5b3 5f00 	cmp.w	r3, #8192	; 0x2000
 8002dea:	d10c      	bne.n	8002e06 <HAL_TIM_ConfigClockSource+0xd2>
 8002dec:	68cb      	ldr	r3, [r1, #12]
 8002dee:	684a      	ldr	r2, [r1, #4]
 8002df0:	6889      	ldr	r1, [r1, #8]
 8002df2:	6800      	ldr	r0, [r0, #0]
 8002df4:	f7ff ff92 	bl	8002d1c <TIM_ETR_SetConfig>
 8002df8:	6822      	ldr	r2, [r4, #0]
 8002dfa:	6893      	ldr	r3, [r2, #8]
 8002dfc:	f443 4380 	orr.w	r3, r3, #16384	; 0x4000
 8002e00:	6093      	str	r3, [r2, #8]
 8002e02:	2000      	movs	r0, #0
 8002e04:	e7e1      	b.n	8002dca <HAL_TIM_ConfigClockSource+0x96>
 8002e06:	2b70      	cmp	r3, #112	; 0x70
 8002e08:	d145      	bne.n	8002e96 <HAL_TIM_ConfigClockSource+0x162>
 8002e0a:	68cb      	ldr	r3, [r1, #12]
 8002e0c:	684a      	ldr	r2, [r1, #4]
 8002e0e:	6889      	ldr	r1, [r1, #8]
 8002e10:	6800      	ldr	r0, [r0, #0]
 8002e12:	f7ff ff83 	bl	8002d1c <TIM_ETR_SetConfig>
 8002e16:	6822      	ldr	r2, [r4, #0]
 8002e18:	6893      	ldr	r3, [r2, #8]
 8002e1a:	f043 0377 	orr.w	r3, r3, #119	; 0x77
 8002e1e:	6093      	str	r3, [r2, #8]
 8002e20:	2000      	movs	r0, #0
 8002e22:	e7d2      	b.n	8002dca <HAL_TIM_ConfigClockSource+0x96>
 8002e24:	6803      	ldr	r3, [r0, #0]
 8002e26:	6848      	ldr	r0, [r1, #4]
 8002e28:	68cd      	ldr	r5, [r1, #12]
 8002e2a:	6a1a      	ldr	r2, [r3, #32]
 8002e2c:	6a19      	ldr	r1, [r3, #32]
 8002e2e:	f021 0110 	bic.w	r1, r1, #16
 8002e32:	6219      	str	r1, [r3, #32]
 8002e34:	6999      	ldr	r1, [r3, #24]
 8002e36:	f421 4170 	bic.w	r1, r1, #61440	; 0xf000
 8002e3a:	ea41 3105 	orr.w	r1, r1, r5, lsl #12
 8002e3e:	f022 02a0 	bic.w	r2, r2, #160	; 0xa0
 8002e42:	ea42 1200 	orr.w	r2, r2, r0, lsl #4
 8002e46:	6199      	str	r1, [r3, #24]
 8002e48:	621a      	str	r2, [r3, #32]
 8002e4a:	6822      	ldr	r2, [r4, #0]
 8002e4c:	6893      	ldr	r3, [r2, #8]
 8002e4e:	f023 0370 	bic.w	r3, r3, #112	; 0x70
 8002e52:	f043 0367 	orr.w	r3, r3, #103	; 0x67
 8002e56:	6093      	str	r3, [r2, #8]
 8002e58:	2000      	movs	r0, #0
 8002e5a:	e7b6      	b.n	8002dca <HAL_TIM_ConfigClockSource+0x96>
 8002e5c:	6803      	ldr	r3, [r0, #0]
 8002e5e:	6848      	ldr	r0, [r1, #4]
 8002e60:	68cd      	ldr	r5, [r1, #12]
 8002e62:	6a19      	ldr	r1, [r3, #32]
 8002e64:	6a1a      	ldr	r2, [r3, #32]
 8002e66:	f022 0201 	bic.w	r2, r2, #1
 8002e6a:	621a      	str	r2, [r3, #32]
 8002e6c:	699a      	ldr	r2, [r3, #24]
 8002e6e:	f022 02f0 	bic.w	r2, r2, #240	; 0xf0
 8002e72:	ea42 1205 	orr.w	r2, r2, r5, lsl #4
 8002e76:	f021 010a 	bic.w	r1, r1, #10
 8002e7a:	4301      	orrs	r1, r0
 8002e7c:	619a      	str	r2, [r3, #24]
 8002e7e:	6219      	str	r1, [r3, #32]
 8002e80:	6822      	ldr	r2, [r4, #0]
 8002e82:	6893      	ldr	r3, [r2, #8]
 8002e84:	f023 0370 	bic.w	r3, r3, #112	; 0x70
 8002e88:	f043 0347 	orr.w	r3, r3, #71	; 0x47
 8002e8c:	6093      	str	r3, [r2, #8]
 8002e8e:	2000      	movs	r0, #0
 8002e90:	e79b      	b.n	8002dca <HAL_TIM_ConfigClockSource+0x96>
 8002e92:	2000      	movs	r0, #0
 8002e94:	e799      	b.n	8002dca <HAL_TIM_ConfigClockSource+0x96>
 8002e96:	2001      	movs	r0, #1
 8002e98:	e797      	b.n	8002dca <HAL_TIM_ConfigClockSource+0x96>
 8002e9a:	2002      	movs	r0, #2
 8002e9c:	e79b      	b.n	8002dd6 <HAL_TIM_ConfigClockSource+0xa2>
	...

08002ea0 <HAL_TIMEx_MasterConfigSynchronization>:
 8002ea0:	f890 203c 	ldrb.w	r2, [r0, #60]	; 0x3c
 8002ea4:	2a01      	cmp	r2, #1
 8002ea6:	d02b      	beq.n	8002f00 <HAL_TIMEx_MasterConfigSynchronization+0x60>
 8002ea8:	b430      	push	{r4, r5}
 8002eaa:	4603      	mov	r3, r0
 8002eac:	2201      	movs	r2, #1
 8002eae:	f880 203c 	strb.w	r2, [r0, #60]	; 0x3c
 8002eb2:	2202      	movs	r2, #2
 8002eb4:	f880 203d 	strb.w	r2, [r0, #61]	; 0x3d
 8002eb8:	6804      	ldr	r4, [r0, #0]
 8002eba:	6862      	ldr	r2, [r4, #4]
 8002ebc:	68a0      	ldr	r0, [r4, #8]
 8002ebe:	f022 0270 	bic.w	r2, r2, #112	; 0x70
 8002ec2:	680d      	ldr	r5, [r1, #0]
 8002ec4:	432a      	orrs	r2, r5
 8002ec6:	6062      	str	r2, [r4, #4]
 8002ec8:	681a      	ldr	r2, [r3, #0]
 8002eca:	4c0e      	ldr	r4, [pc, #56]	; (8002f04 <HAL_TIMEx_MasterConfigSynchronization+0x64>)
 8002ecc:	42a2      	cmp	r2, r4
 8002ece:	d00a      	beq.n	8002ee6 <HAL_TIMEx_MasterConfigSynchronization+0x46>
 8002ed0:	f1b2 4f80 	cmp.w	r2, #1073741824	; 0x40000000
 8002ed4:	d007      	beq.n	8002ee6 <HAL_TIMEx_MasterConfigSynchronization+0x46>
 8002ed6:	f5a4 3494 	sub.w	r4, r4, #75776	; 0x12800
 8002eda:	42a2      	cmp	r2, r4
 8002edc:	d003      	beq.n	8002ee6 <HAL_TIMEx_MasterConfigSynchronization+0x46>
 8002ede:	f504 6480 	add.w	r4, r4, #1024	; 0x400
 8002ee2:	42a2      	cmp	r2, r4
 8002ee4:	d104      	bne.n	8002ef0 <HAL_TIMEx_MasterConfigSynchronization+0x50>
 8002ee6:	f020 0080 	bic.w	r0, r0, #128	; 0x80
 8002eea:	6849      	ldr	r1, [r1, #4]
 8002eec:	4308      	orrs	r0, r1
 8002eee:	6090      	str	r0, [r2, #8]
 8002ef0:	2201      	movs	r2, #1
 8002ef2:	f883 203d 	strb.w	r2, [r3, #61]	; 0x3d
 8002ef6:	2000      	movs	r0, #0
 8002ef8:	f883 003c 	strb.w	r0, [r3, #60]	; 0x3c
 8002efc:	bc30      	pop	{r4, r5}
 8002efe:	4770      	bx	lr
 8002f00:	2002      	movs	r0, #2
 8002f02:	4770      	bx	lr
 8002f04:	40012c00 	.word	0x40012c00

08002f08 <UART_SetConfig>:
 8002f08:	b510      	push	{r4, lr}
 8002f0a:	4604      	mov	r4, r0
 8002f0c:	6802      	ldr	r2, [r0, #0]
 8002f0e:	6913      	ldr	r3, [r2, #16]
 8002f10:	f423 5340 	bic.w	r3, r3, #12288	; 0x3000
 8002f14:	68c1      	ldr	r1, [r0, #12]
 8002f16:	430b      	orrs	r3, r1
 8002f18:	6113      	str	r3, [r2, #16]
 8002f1a:	6801      	ldr	r1, [r0, #0]
 8002f1c:	68ca      	ldr	r2, [r1, #12]
 8002f1e:	6883      	ldr	r3, [r0, #8]
 8002f20:	6900      	ldr	r0, [r0, #16]
 8002f22:	4303      	orrs	r3, r0
 8002f24:	6960      	ldr	r0, [r4, #20]
 8002f26:	4303      	orrs	r3, r0
 8002f28:	f422 52b0 	bic.w	r2, r2, #5632	; 0x1600
 8002f2c:	f022 020c 	bic.w	r2, r2, #12
 8002f30:	4313      	orrs	r3, r2
 8002f32:	60cb      	str	r3, [r1, #12]
 8002f34:	6822      	ldr	r2, [r4, #0]
 8002f36:	6953      	ldr	r3, [r2, #20]
 8002f38:	f423 7340 	bic.w	r3, r3, #768	; 0x300
 8002f3c:	69a1      	ldr	r1, [r4, #24]
 8002f3e:	430b      	orrs	r3, r1
 8002f40:	6153      	str	r3, [r2, #20]
 8002f42:	6822      	ldr	r2, [r4, #0]
 8002f44:	4b11      	ldr	r3, [pc, #68]	; (8002f8c <UART_SetConfig+0x84>)
 8002f46:	429a      	cmp	r2, r3
 8002f48:	d01b      	beq.n	8002f82 <UART_SetConfig+0x7a>
 8002f4a:	f7ff f89b 	bl	8002084 <HAL_RCC_GetPCLK1Freq>
 8002f4e:	4603      	mov	r3, r0
 8002f50:	eb03 0383 	add.w	r3, r3, r3, lsl #2
 8002f54:	eb03 0383 	add.w	r3, r3, r3, lsl #2
 8002f58:	6862      	ldr	r2, [r4, #4]
 8002f5a:	0092      	lsls	r2, r2, #2
 8002f5c:	fbb3 f3f2 	udiv	r3, r3, r2
 8002f60:	6820      	ldr	r0, [r4, #0]
 8002f62:	490b      	ldr	r1, [pc, #44]	; (8002f90 <UART_SetConfig+0x88>)
 8002f64:	fba1 4203 	umull	r4, r2, r1, r3
 8002f68:	0952      	lsrs	r2, r2, #5
 8002f6a:	2464      	movs	r4, #100	; 0x64
 8002f6c:	fb04 3312 	mls	r3, r4, r2, r3
 8002f70:	011b      	lsls	r3, r3, #4
 8002f72:	3332      	adds	r3, #50	; 0x32
 8002f74:	fba1 1303 	umull	r1, r3, r1, r3
 8002f78:	0112      	lsls	r2, r2, #4
 8002f7a:	eb02 1253 	add.w	r2, r2, r3, lsr #5
 8002f7e:	6082      	str	r2, [r0, #8]
 8002f80:	bd10      	pop	{r4, pc}
 8002f82:	f7ff f88f 	bl	80020a4 <HAL_RCC_GetPCLK2Freq>
 8002f86:	4603      	mov	r3, r0
 8002f88:	e7e2      	b.n	8002f50 <UART_SetConfig+0x48>
 8002f8a:	bf00      	nop
 8002f8c:	40013800 	.word	0x40013800
 8002f90:	51eb851f 	.word	0x51eb851f

08002f94 <HAL_UART_Init>:
 8002f94:	b360      	cbz	r0, 8002ff0 <HAL_UART_Init+0x5c>
 8002f96:	b510      	push	{r4, lr}
 8002f98:	4604      	mov	r4, r0
 8002f9a:	f890 3041 	ldrb.w	r3, [r0, #65]	; 0x41
 8002f9e:	b313      	cbz	r3, 8002fe6 <HAL_UART_Init+0x52>
 8002fa0:	2324      	movs	r3, #36	; 0x24
 8002fa2:	f884 3041 	strb.w	r3, [r4, #65]	; 0x41
 8002fa6:	6822      	ldr	r2, [r4, #0]
 8002fa8:	68d3      	ldr	r3, [r2, #12]
 8002faa:	f423 5300 	bic.w	r3, r3, #8192	; 0x2000
 8002fae:	60d3      	str	r3, [r2, #12]
 8002fb0:	4620      	mov	r0, r4
 8002fb2:	f7ff ffa9 	bl	8002f08 <UART_SetConfig>
 8002fb6:	6822      	ldr	r2, [r4, #0]
 8002fb8:	6913      	ldr	r3, [r2, #16]
 8002fba:	f423 4390 	bic.w	r3, r3, #18432	; 0x4800
 8002fbe:	6113      	str	r3, [r2, #16]
 8002fc0:	6822      	ldr	r2, [r4, #0]
 8002fc2:	6953      	ldr	r3, [r2, #20]
 8002fc4:	f023 032a 	bic.w	r3, r3, #42	; 0x2a
 8002fc8:	6153      	str	r3, [r2, #20]
 8002fca:	6822      	ldr	r2, [r4, #0]
 8002fcc:	68d3      	ldr	r3, [r2, #12]
 8002fce:	f443 5300 	orr.w	r3, r3, #8192	; 0x2000
 8002fd2:	60d3      	str	r3, [r2, #12]
 8002fd4:	2000      	movs	r0, #0
 8002fd6:	6460      	str	r0, [r4, #68]	; 0x44
 8002fd8:	2320      	movs	r3, #32
 8002fda:	f884 3041 	strb.w	r3, [r4, #65]	; 0x41
 8002fde:	f884 3042 	strb.w	r3, [r4, #66]	; 0x42
 8002fe2:	6360      	str	r0, [r4, #52]	; 0x34
 8002fe4:	bd10      	pop	{r4, pc}
 8002fe6:	f880 3040 	strb.w	r3, [r0, #64]	; 0x40
 8002fea:	f7fd ff9f 	bl	8000f2c <HAL_UART_MspInit>
 8002fee:	e7d7      	b.n	8002fa0 <HAL_UART_Init+0xc>
 8002ff0:	2001      	movs	r0, #1
 8002ff2:	4770      	bx	lr

08002ff4 <std>:
 8002ff4:	2300      	movs	r3, #0
 8002ff6:	b510      	push	{r4, lr}
 8002ff8:	4604      	mov	r4, r0
 8002ffa:	e9c0 3300 	strd	r3, r3, [r0]
 8002ffe:	e9c0 3304 	strd	r3, r3, [r0, #16]
 8003002:	6083      	str	r3, [r0, #8]
 8003004:	8181      	strh	r1, [r0, #12]
 8003006:	6643      	str	r3, [r0, #100]	; 0x64
 8003008:	81c2      	strh	r2, [r0, #14]
 800300a:	6183      	str	r3, [r0, #24]
 800300c:	4619      	mov	r1, r3
 800300e:	2208      	movs	r2, #8
 8003010:	305c      	adds	r0, #92	; 0x5c
 8003012:	f000 f9f7 	bl	8003404 <memset>
 8003016:	4b0d      	ldr	r3, [pc, #52]	; (800304c <std+0x58>)
 8003018:	6224      	str	r4, [r4, #32]
 800301a:	6263      	str	r3, [r4, #36]	; 0x24
 800301c:	4b0c      	ldr	r3, [pc, #48]	; (8003050 <std+0x5c>)
 800301e:	62a3      	str	r3, [r4, #40]	; 0x28
 8003020:	4b0c      	ldr	r3, [pc, #48]	; (8003054 <std+0x60>)
 8003022:	62e3      	str	r3, [r4, #44]	; 0x2c
 8003024:	4b0c      	ldr	r3, [pc, #48]	; (8003058 <std+0x64>)
 8003026:	6323      	str	r3, [r4, #48]	; 0x30
 8003028:	4b0c      	ldr	r3, [pc, #48]	; (800305c <std+0x68>)
 800302a:	429c      	cmp	r4, r3
 800302c:	d006      	beq.n	800303c <std+0x48>
 800302e:	f103 0268 	add.w	r2, r3, #104	; 0x68
 8003032:	4294      	cmp	r4, r2
 8003034:	d002      	beq.n	800303c <std+0x48>
 8003036:	33d0      	adds	r3, #208	; 0xd0
 8003038:	429c      	cmp	r4, r3
 800303a:	d105      	bne.n	8003048 <std+0x54>
 800303c:	f104 0058 	add.w	r0, r4, #88	; 0x58
 8003040:	e8bd 4010 	ldmia.w	sp!, {r4, lr}
 8003044:	f000 ba56 	b.w	80034f4 <__retarget_lock_init_recursive>
 8003048:	bd10      	pop	{r4, pc}
 800304a:	bf00      	nop
 800304c:	08003255 	.word	0x08003255
 8003050:	08003277 	.word	0x08003277
 8003054:	080032af 	.word	0x080032af
 8003058:	080032d3 	.word	0x080032d3
 800305c:	20000458 	.word	0x20000458

08003060 <stdio_exit_handler>:
 8003060:	4a02      	ldr	r2, [pc, #8]	; (800306c <stdio_exit_handler+0xc>)
 8003062:	4903      	ldr	r1, [pc, #12]	; (8003070 <stdio_exit_handler+0x10>)
 8003064:	4803      	ldr	r0, [pc, #12]	; (8003074 <stdio_exit_handler+0x14>)
 8003066:	f000 b869 	b.w	800313c <_fwalk_sglue>
 800306a:	bf00      	nop
 800306c:	2000000c 	.word	0x2000000c
 8003070:	08003d95 	.word	0x08003d95
 8003074:	20000018 	.word	0x20000018

08003078 <cleanup_stdio>:
 8003078:	6841      	ldr	r1, [r0, #4]
 800307a:	4b0c      	ldr	r3, [pc, #48]	; (80030ac <cleanup_stdio+0x34>)
 800307c:	b510      	push	{r4, lr}
 800307e:	4299      	cmp	r1, r3
 8003080:	4604      	mov	r4, r0
 8003082:	d001      	beq.n	8003088 <cleanup_stdio+0x10>
 8003084:	f000 fe86 	bl	8003d94 <_fflush_r>
 8003088:	68a1      	ldr	r1, [r4, #8]
 800308a:	4b09      	ldr	r3, [pc, #36]	; (80030b0 <cleanup_stdio+0x38>)
 800308c:	4299      	cmp	r1, r3
 800308e:	d002      	beq.n	8003096 <cleanup_stdio+0x1e>
 8003090:	4620      	mov	r0, r4
 8003092:	f000 fe7f 	bl	8003d94 <_fflush_r>
 8003096:	68e1      	ldr	r1, [r4, #12]
 8003098:	4b06      	ldr	r3, [pc, #24]	; (80030b4 <cleanup_stdio+0x3c>)
 800309a:	4299      	cmp	r1, r3
 800309c:	d004      	beq.n	80030a8 <cleanup_stdio+0x30>
 800309e:	4620      	mov	r0, r4
 80030a0:	e8bd 4010 	ldmia.w	sp!, {r4, lr}
 80030a4:	f000 be76 	b.w	8003d94 <_fflush_r>
 80030a8:	bd10      	pop	{r4, pc}
 80030aa:	bf00      	nop
 80030ac:	20000458 	.word	0x20000458
 80030b0:	200004c0 	.word	0x200004c0
 80030b4:	20000528 	.word	0x20000528

080030b8 <global_stdio_init.part.0>:
 80030b8:	b510      	push	{r4, lr}
 80030ba:	4b0b      	ldr	r3, [pc, #44]	; (80030e8 <global_stdio_init.part.0+0x30>)
 80030bc:	4c0b      	ldr	r4, [pc, #44]	; (80030ec <global_stdio_init.part.0+0x34>)
 80030be:	4a0c      	ldr	r2, [pc, #48]	; (80030f0 <global_stdio_init.part.0+0x38>)
 80030c0:	4620      	mov	r0, r4
 80030c2:	601a      	str	r2, [r3, #0]
 80030c4:	2104      	movs	r1, #4
 80030c6:	2200      	movs	r2, #0
 80030c8:	f7ff ff94 	bl	8002ff4 <std>
 80030cc:	f104 0068 	add.w	r0, r4, #104	; 0x68
 80030d0:	2201      	movs	r2, #1
 80030d2:	2109      	movs	r1, #9
 80030d4:	f7ff ff8e 	bl	8002ff4 <std>
 80030d8:	f104 00d0 	add.w	r0, r4, #208	; 0xd0
 80030dc:	2202      	movs	r2, #2
 80030de:	e8bd 4010 	ldmia.w	sp!, {r4, lr}
 80030e2:	2112      	movs	r1, #18
 80030e4:	f7ff bf86 	b.w	8002ff4 <std>
 80030e8:	20000590 	.word	0x20000590
 80030ec:	20000458 	.word	0x20000458
 80030f0:	08003061 	.word	0x08003061

080030f4 <__sfp_lock_acquire>:
 80030f4:	4801      	ldr	r0, [pc, #4]	; (80030fc <__sfp_lock_acquire+0x8>)
 80030f6:	f000 b9fe 	b.w	80034f6 <__retarget_lock_acquire_recursive>
 80030fa:	bf00      	nop
 80030fc:	20000599 	.word	0x20000599

08003100 <__sfp_lock_release>:
 8003100:	4801      	ldr	r0, [pc, #4]	; (8003108 <__sfp_lock_release+0x8>)
 8003102:	f000 b9f9 	b.w	80034f8 <__retarget_lock_release_recursive>
 8003106:	bf00      	nop
 8003108:	20000599 	.word	0x20000599

0800310c <__sinit>:
 800310c:	b510      	push	{r4, lr}
 800310e:	4604      	mov	r4, r0
 8003110:	f7ff fff0 	bl	80030f4 <__sfp_lock_acquire>
 8003114:	6a23      	ldr	r3, [r4, #32]
 8003116:	b11b      	cbz	r3, 8003120 <__sinit+0x14>
 8003118:	e8bd 4010 	ldmia.w	sp!, {r4, lr}
 800311c:	f7ff bff0 	b.w	8003100 <__sfp_lock_release>
 8003120:	4b04      	ldr	r3, [pc, #16]	; (8003134 <__sinit+0x28>)
 8003122:	6223      	str	r3, [r4, #32]
 8003124:	4b04      	ldr	r3, [pc, #16]	; (8003138 <__sinit+0x2c>)
 8003126:	681b      	ldr	r3, [r3, #0]
 8003128:	2b00      	cmp	r3, #0
 800312a:	d1f5      	bne.n	8003118 <__sinit+0xc>
 800312c:	f7ff ffc4 	bl	80030b8 <global_stdio_init.part.0>
 8003130:	e7f2      	b.n	8003118 <__sinit+0xc>
 8003132:	bf00      	nop
 8003134:	08003079 	.word	0x08003079
 8003138:	20000590 	.word	0x20000590

0800313c <_fwalk_sglue>:
 800313c:	e92d 43f8 	stmdb	sp!, {r3, r4, r5, r6, r7, r8, r9, lr}
 8003140:	4607      	mov	r7, r0
 8003142:	4688      	mov	r8, r1
 8003144:	4614      	mov	r4, r2
 8003146:	2600      	movs	r6, #0
 8003148:	e9d4 9501 	ldrd	r9, r5, [r4, #4]
 800314c:	f1b9 0901 	subs.w	r9, r9, #1
 8003150:	d505      	bpl.n	800315e <_fwalk_sglue+0x22>
 8003152:	6824      	ldr	r4, [r4, #0]
 8003154:	2c00      	cmp	r4, #0
 8003156:	d1f7      	bne.n	8003148 <_fwalk_sglue+0xc>
 8003158:	4630      	mov	r0, r6
 800315a:	e8bd 83f8 	ldmia.w	sp!, {r3, r4, r5, r6, r7, r8, r9, pc}
 800315e:	89ab      	ldrh	r3, [r5, #12]
 8003160:	2b01      	cmp	r3, #1
 8003162:	d907      	bls.n	8003174 <_fwalk_sglue+0x38>
 8003164:	f9b5 300e 	ldrsh.w	r3, [r5, #14]
 8003168:	3301      	adds	r3, #1
 800316a:	d003      	beq.n	8003174 <_fwalk_sglue+0x38>
 800316c:	4629      	mov	r1, r5
 800316e:	4638      	mov	r0, r7
 8003170:	47c0      	blx	r8
 8003172:	4306      	orrs	r6, r0
 8003174:	3568      	adds	r5, #104	; 0x68
 8003176:	e7e9      	b.n	800314c <_fwalk_sglue+0x10>

08003178 <iprintf>:
 8003178:	b40f      	push	{r0, r1, r2, r3}
 800317a:	b507      	push	{r0, r1, r2, lr}
 800317c:	4906      	ldr	r1, [pc, #24]	; (8003198 <iprintf+0x20>)
 800317e:	ab04      	add	r3, sp, #16
 8003180:	6808      	ldr	r0, [r1, #0]
 8003182:	f853 2b04 	ldr.w	r2, [r3], #4
 8003186:	6881      	ldr	r1, [r0, #8]
 8003188:	9301      	str	r3, [sp, #4]
 800318a:	f000 fad3 	bl	8003734 <_vfiprintf_r>
 800318e:	b003      	add	sp, #12
 8003190:	f85d eb04 	ldr.w	lr, [sp], #4
 8003194:	b004      	add	sp, #16
 8003196:	4770      	bx	lr
 8003198:	20000064 	.word	0x20000064

0800319c <_puts_r>:
 800319c:	6a03      	ldr	r3, [r0, #32]
 800319e:	b570      	push	{r4, r5, r6, lr}
 80031a0:	4605      	mov	r5, r0
 80031a2:	460e      	mov	r6, r1
 80031a4:	6884      	ldr	r4, [r0, #8]
 80031a6:	b90b      	cbnz	r3, 80031ac <_puts_r+0x10>
 80031a8:	f7ff ffb0 	bl	800310c <__sinit>
 80031ac:	6e63      	ldr	r3, [r4, #100]	; 0x64
 80031ae:	07db      	lsls	r3, r3, #31
 80031b0:	d405      	bmi.n	80031be <_puts_r+0x22>
 80031b2:	89a3      	ldrh	r3, [r4, #12]
 80031b4:	0598      	lsls	r0, r3, #22
 80031b6:	d402      	bmi.n	80031be <_puts_r+0x22>
 80031b8:	6da0      	ldr	r0, [r4, #88]	; 0x58
 80031ba:	f000 f99c 	bl	80034f6 <__retarget_lock_acquire_recursive>
 80031be:	89a3      	ldrh	r3, [r4, #12]
 80031c0:	0719      	lsls	r1, r3, #28
 80031c2:	d513      	bpl.n	80031ec <_puts_r+0x50>
 80031c4:	6923      	ldr	r3, [r4, #16]
 80031c6:	b18b      	cbz	r3, 80031ec <_puts_r+0x50>
 80031c8:	3e01      	subs	r6, #1
 80031ca:	68a3      	ldr	r3, [r4, #8]
 80031cc:	f816 1f01 	ldrb.w	r1, [r6, #1]!
 80031d0:	3b01      	subs	r3, #1
 80031d2:	60a3      	str	r3, [r4, #8]
 80031d4:	b9e9      	cbnz	r1, 8003212 <_puts_r+0x76>
 80031d6:	2b00      	cmp	r3, #0
 80031d8:	da2e      	bge.n	8003238 <_puts_r+0x9c>
 80031da:	4622      	mov	r2, r4
 80031dc:	210a      	movs	r1, #10
 80031de:	4628      	mov	r0, r5
 80031e0:	f000 f87b 	bl	80032da <__swbuf_r>
 80031e4:	3001      	adds	r0, #1
 80031e6:	d007      	beq.n	80031f8 <_puts_r+0x5c>
 80031e8:	250a      	movs	r5, #10
 80031ea:	e007      	b.n	80031fc <_puts_r+0x60>
 80031ec:	4621      	mov	r1, r4
 80031ee:	4628      	mov	r0, r5
 80031f0:	f000 f8b0 	bl	8003354 <__swsetup_r>
 80031f4:	2800      	cmp	r0, #0
 80031f6:	d0e7      	beq.n	80031c8 <_puts_r+0x2c>
 80031f8:	f04f 35ff 	mov.w	r5, #4294967295
 80031fc:	6e63      	ldr	r3, [r4, #100]	; 0x64
 80031fe:	07da      	lsls	r2, r3, #31
 8003200:	d405      	bmi.n	800320e <_puts_r+0x72>
 8003202:	89a3      	ldrh	r3, [r4, #12]
 8003204:	059b      	lsls	r3, r3, #22
 8003206:	d402      	bmi.n	800320e <_puts_r+0x72>
 8003208:	6da0      	ldr	r0, [r4, #88]	; 0x58
 800320a:	f000 f975 	bl	80034f8 <__retarget_lock_release_recursive>
 800320e:	4628      	mov	r0, r5
 8003210:	bd70      	pop	{r4, r5, r6, pc}
 8003212:	2b00      	cmp	r3, #0
 8003214:	da04      	bge.n	8003220 <_puts_r+0x84>
 8003216:	69a2      	ldr	r2, [r4, #24]
 8003218:	429a      	cmp	r2, r3
 800321a:	dc06      	bgt.n	800322a <_puts_r+0x8e>
 800321c:	290a      	cmp	r1, #10
 800321e:	d004      	beq.n	800322a <_puts_r+0x8e>
 8003220:	6823      	ldr	r3, [r4, #0]
 8003222:	1c5a      	adds	r2, r3, #1
 8003224:	6022      	str	r2, [r4, #0]
 8003226:	7019      	strb	r1, [r3, #0]
 8003228:	e7cf      	b.n	80031ca <_puts_r+0x2e>
 800322a:	4622      	mov	r2, r4
 800322c:	4628      	mov	r0, r5
 800322e:	f000 f854 	bl	80032da <__swbuf_r>
 8003232:	3001      	adds	r0, #1
 8003234:	d1c9      	bne.n	80031ca <_puts_r+0x2e>
 8003236:	e7df      	b.n	80031f8 <_puts_r+0x5c>
 8003238:	250a      	movs	r5, #10
 800323a:	6823      	ldr	r3, [r4, #0]
 800323c:	1c5a      	adds	r2, r3, #1
 800323e:	6022      	str	r2, [r4, #0]
 8003240:	701d      	strb	r5, [r3, #0]
 8003242:	e7db      	b.n	80031fc <_puts_r+0x60>

08003244 <puts>:
 8003244:	4b02      	ldr	r3, [pc, #8]	; (8003250 <puts+0xc>)
 8003246:	4601      	mov	r1, r0
 8003248:	6818      	ldr	r0, [r3, #0]
 800324a:	f7ff bfa7 	b.w	800319c <_puts_r>
 800324e:	bf00      	nop
 8003250:	20000064 	.word	0x20000064

08003254 <__sread>:
 8003254:	b510      	push	{r4, lr}
 8003256:	460c      	mov	r4, r1
 8003258:	f9b1 100e 	ldrsh.w	r1, [r1, #14]
 800325c:	f000 f8fc 	bl	8003458 <_read_r>
 8003260:	2800      	cmp	r0, #0
 8003262:	bfab      	itete	ge
 8003264:	6d63      	ldrge	r3, [r4, #84]	; 0x54
 8003266:	89a3      	ldrhlt	r3, [r4, #12]
 8003268:	181b      	addge	r3, r3, r0
 800326a:	f423 5380 	biclt.w	r3, r3, #4096	; 0x1000
 800326e:	bfac      	ite	ge
 8003270:	6563      	strge	r3, [r4, #84]	; 0x54
 8003272:	81a3      	strhlt	r3, [r4, #12]
 8003274:	bd10      	pop	{r4, pc}

08003276 <__swrite>:
 8003276:	e92d 41f0 	stmdb	sp!, {r4, r5, r6, r7, r8, lr}
 800327a:	461f      	mov	r7, r3
 800327c:	898b      	ldrh	r3, [r1, #12]
 800327e:	4605      	mov	r5, r0
 8003280:	05db      	lsls	r3, r3, #23
 8003282:	460c      	mov	r4, r1
 8003284:	4616      	mov	r6, r2
 8003286:	d505      	bpl.n	8003294 <__swrite+0x1e>
 8003288:	2302      	movs	r3, #2
 800328a:	2200      	movs	r2, #0
 800328c:	f9b1 100e 	ldrsh.w	r1, [r1, #14]
 8003290:	f000 f8d0 	bl	8003434 <_lseek_r>
 8003294:	89a3      	ldrh	r3, [r4, #12]
 8003296:	4632      	mov	r2, r6
 8003298:	f423 5380 	bic.w	r3, r3, #4096	; 0x1000
 800329c:	81a3      	strh	r3, [r4, #12]
 800329e:	4628      	mov	r0, r5
 80032a0:	463b      	mov	r3, r7
 80032a2:	f9b4 100e 	ldrsh.w	r1, [r4, #14]
 80032a6:	e8bd 41f0 	ldmia.w	sp!, {r4, r5, r6, r7, r8, lr}
 80032aa:	f000 b8e7 	b.w	800347c <_write_r>

080032ae <__sseek>:
 80032ae:	b510      	push	{r4, lr}
 80032b0:	460c      	mov	r4, r1
 80032b2:	f9b1 100e 	ldrsh.w	r1, [r1, #14]
 80032b6:	f000 f8bd 	bl	8003434 <_lseek_r>
 80032ba:	1c43      	adds	r3, r0, #1
 80032bc:	89a3      	ldrh	r3, [r4, #12]
 80032be:	bf15      	itete	ne
 80032c0:	6560      	strne	r0, [r4, #84]	; 0x54
 80032c2:	f423 5380 	biceq.w	r3, r3, #4096	; 0x1000
 80032c6:	f443 5380 	orrne.w	r3, r3, #4096	; 0x1000
 80032ca:	81a3      	strheq	r3, [r4, #12]
 80032cc:	bf18      	it	ne
 80032ce:	81a3      	strhne	r3, [r4, #12]
 80032d0:	bd10      	pop	{r4, pc}

080032d2 <__sclose>:
 80032d2:	f9b1 100e 	ldrsh.w	r1, [r1, #14]
 80032d6:	f000 b89d 	b.w	8003414 <_close_r>

080032da <__swbuf_r>:
 80032da:	b5f8      	push	{r3, r4, r5, r6, r7, lr}
 80032dc:	460e      	mov	r6, r1
 80032de:	4614      	mov	r4, r2
 80032e0:	4605      	mov	r5, r0
 80032e2:	b118      	cbz	r0, 80032ec <__swbuf_r+0x12>
 80032e4:	6a03      	ldr	r3, [r0, #32]
 80032e6:	b90b      	cbnz	r3, 80032ec <__swbuf_r+0x12>
 80032e8:	f7ff ff10 	bl	800310c <__sinit>
 80032ec:	69a3      	ldr	r3, [r4, #24]
 80032ee:	60a3      	str	r3, [r4, #8]
 80032f0:	89a3      	ldrh	r3, [r4, #12]
 80032f2:	071a      	lsls	r2, r3, #28
 80032f4:	d525      	bpl.n	8003342 <__swbuf_r+0x68>
 80032f6:	6923      	ldr	r3, [r4, #16]
 80032f8:	b31b      	cbz	r3, 8003342 <__swbuf_r+0x68>
 80032fa:	6823      	ldr	r3, [r4, #0]
 80032fc:	6922      	ldr	r2, [r4, #16]
 80032fe:	b2f6      	uxtb	r6, r6
 8003300:	1a98      	subs	r0, r3, r2
 8003302:	6963      	ldr	r3, [r4, #20]
 8003304:	4637      	mov	r7, r6
 8003306:	4283      	cmp	r3, r0
 8003308:	dc04      	bgt.n	8003314 <__swbuf_r+0x3a>
 800330a:	4621      	mov	r1, r4
 800330c:	4628      	mov	r0, r5
 800330e:	f000 fd41 	bl	8003d94 <_fflush_r>
 8003312:	b9e0      	cbnz	r0, 800334e <__swbuf_r+0x74>
 8003314:	68a3      	ldr	r3, [r4, #8]
 8003316:	3b01      	subs	r3, #1
 8003318:	60a3      	str	r3, [r4, #8]
 800331a:	6823      	ldr	r3, [r4, #0]
 800331c:	1c5a      	adds	r2, r3, #1
 800331e:	6022      	str	r2, [r4, #0]
 8003320:	701e      	strb	r6, [r3, #0]
 8003322:	6962      	ldr	r2, [r4, #20]
 8003324:	1c43      	adds	r3, r0, #1
 8003326:	429a      	cmp	r2, r3
 8003328:	d004      	beq.n	8003334 <__swbuf_r+0x5a>
 800332a:	89a3      	ldrh	r3, [r4, #12]
 800332c:	07db      	lsls	r3, r3, #31
 800332e:	d506      	bpl.n	800333e <__swbuf_r+0x64>
 8003330:	2e0a      	cmp	r6, #10
 8003332:	d104      	bne.n	800333e <__swbuf_r+0x64>
 8003334:	4621      	mov	r1, r4
 8003336:	4628      	mov	r0, r5
 8003338:	f000 fd2c 	bl	8003d94 <_fflush_r>
 800333c:	b938      	cbnz	r0, 800334e <__swbuf_r+0x74>
 800333e:	4638      	mov	r0, r7
 8003340:	bdf8      	pop	{r3, r4, r5, r6, r7, pc}
 8003342:	4621      	mov	r1, r4
 8003344:	4628      	mov	r0, r5
 8003346:	f000 f805 	bl	8003354 <__swsetup_r>
 800334a:	2800      	cmp	r0, #0
 800334c:	d0d5      	beq.n	80032fa <__swbuf_r+0x20>
 800334e:	f04f 37ff 	mov.w	r7, #4294967295
 8003352:	e7f4      	b.n	800333e <__swbuf_r+0x64>

08003354 <__swsetup_r>:
 8003354:	b538      	push	{r3, r4, r5, lr}
 8003356:	4b2a      	ldr	r3, [pc, #168]	; (8003400 <__swsetup_r+0xac>)
 8003358:	4605      	mov	r5, r0
 800335a:	6818      	ldr	r0, [r3, #0]
 800335c:	460c      	mov	r4, r1
 800335e:	b118      	cbz	r0, 8003368 <__swsetup_r+0x14>
 8003360:	6a03      	ldr	r3, [r0, #32]
 8003362:	b90b      	cbnz	r3, 8003368 <__swsetup_r+0x14>
 8003364:	f7ff fed2 	bl	800310c <__sinit>
 8003368:	89a3      	ldrh	r3, [r4, #12]
 800336a:	f9b4 200c 	ldrsh.w	r2, [r4, #12]
 800336e:	0718      	lsls	r0, r3, #28
 8003370:	d422      	bmi.n	80033b8 <__swsetup_r+0x64>
 8003372:	06d9      	lsls	r1, r3, #27
 8003374:	d407      	bmi.n	8003386 <__swsetup_r+0x32>
 8003376:	2309      	movs	r3, #9
 8003378:	602b      	str	r3, [r5, #0]
 800337a:	f042 0340 	orr.w	r3, r2, #64	; 0x40
 800337e:	f04f 30ff 	mov.w	r0, #4294967295
 8003382:	81a3      	strh	r3, [r4, #12]
 8003384:	e034      	b.n	80033f0 <__swsetup_r+0x9c>
 8003386:	0758      	lsls	r0, r3, #29
 8003388:	d512      	bpl.n	80033b0 <__swsetup_r+0x5c>
 800338a:	6b61      	ldr	r1, [r4, #52]	; 0x34
 800338c:	b141      	cbz	r1, 80033a0 <__swsetup_r+0x4c>
 800338e:	f104 0344 	add.w	r3, r4, #68	; 0x44
 8003392:	4299      	cmp	r1, r3
 8003394:	d002      	beq.n	800339c <__swsetup_r+0x48>
 8003396:	4628      	mov	r0, r5
 8003398:	f000 f8b0 	bl	80034fc <_free_r>
 800339c:	2300      	movs	r3, #0
 800339e:	6363      	str	r3, [r4, #52]	; 0x34
 80033a0:	89a3      	ldrh	r3, [r4, #12]
 80033a2:	f023 0324 	bic.w	r3, r3, #36	; 0x24
 80033a6:	81a3      	strh	r3, [r4, #12]
 80033a8:	2300      	movs	r3, #0
 80033aa:	6063      	str	r3, [r4, #4]
 80033ac:	6923      	ldr	r3, [r4, #16]
 80033ae:	6023      	str	r3, [r4, #0]
 80033b0:	89a3      	ldrh	r3, [r4, #12]
 80033b2:	f043 0308 	orr.w	r3, r3, #8
 80033b6:	81a3      	strh	r3, [r4, #12]
 80033b8:	6923      	ldr	r3, [r4, #16]
 80033ba:	b94b      	cbnz	r3, 80033d0 <__swsetup_r+0x7c>
 80033bc:	89a3      	ldrh	r3, [r4, #12]
 80033be:	f403 7320 	and.w	r3, r3, #640	; 0x280
 80033c2:	f5b3 7f00 	cmp.w	r3, #512	; 0x200
 80033c6:	d003      	beq.n	80033d0 <__swsetup_r+0x7c>
 80033c8:	4621      	mov	r1, r4
 80033ca:	4628      	mov	r0, r5
 80033cc:	f000 fd2f 	bl	8003e2e <__smakebuf_r>
 80033d0:	89a0      	ldrh	r0, [r4, #12]
 80033d2:	f9b4 200c 	ldrsh.w	r2, [r4, #12]
 80033d6:	f010 0301 	ands.w	r3, r0, #1
 80033da:	d00a      	beq.n	80033f2 <__swsetup_r+0x9e>
 80033dc:	2300      	movs	r3, #0
 80033de:	60a3      	str	r3, [r4, #8]
 80033e0:	6963      	ldr	r3, [r4, #20]
 80033e2:	425b      	negs	r3, r3
 80033e4:	61a3      	str	r3, [r4, #24]
 80033e6:	6923      	ldr	r3, [r4, #16]
 80033e8:	b943      	cbnz	r3, 80033fc <__swsetup_r+0xa8>
 80033ea:	f010 0080 	ands.w	r0, r0, #128	; 0x80
 80033ee:	d1c4      	bne.n	800337a <__swsetup_r+0x26>
 80033f0:	bd38      	pop	{r3, r4, r5, pc}
 80033f2:	0781      	lsls	r1, r0, #30
 80033f4:	bf58      	it	pl
 80033f6:	6963      	ldrpl	r3, [r4, #20]
 80033f8:	60a3      	str	r3, [r4, #8]
 80033fa:	e7f4      	b.n	80033e6 <__swsetup_r+0x92>
 80033fc:	2000      	movs	r0, #0
 80033fe:	e7f7      	b.n	80033f0 <__swsetup_r+0x9c>
 8003400:	20000064 	.word	0x20000064

08003404 <memset>:
 8003404:	4603      	mov	r3, r0
 8003406:	4402      	add	r2, r0
 8003408:	4293      	cmp	r3, r2
 800340a:	d100      	bne.n	800340e <memset+0xa>
 800340c:	4770      	bx	lr
 800340e:	f803 1b01 	strb.w	r1, [r3], #1
 8003412:	e7f9      	b.n	8003408 <memset+0x4>

08003414 <_close_r>:
 8003414:	b538      	push	{r3, r4, r5, lr}
 8003416:	2300      	movs	r3, #0
 8003418:	4d05      	ldr	r5, [pc, #20]	; (8003430 <_close_r+0x1c>)
 800341a:	4604      	mov	r4, r0
 800341c:	4608      	mov	r0, r1
 800341e:	602b      	str	r3, [r5, #0]
 8003420:	f7fd fe61 	bl	80010e6 <_close>
 8003424:	1c43      	adds	r3, r0, #1
 8003426:	d102      	bne.n	800342e <_close_r+0x1a>
 8003428:	682b      	ldr	r3, [r5, #0]
 800342a:	b103      	cbz	r3, 800342e <_close_r+0x1a>
 800342c:	6023      	str	r3, [r4, #0]
 800342e:	bd38      	pop	{r3, r4, r5, pc}
 8003430:	20000594 	.word	0x20000594

08003434 <_lseek_r>:
 8003434:	b538      	push	{r3, r4, r5, lr}
 8003436:	4604      	mov	r4, r0
 8003438:	4608      	mov	r0, r1
 800343a:	4611      	mov	r1, r2
 800343c:	2200      	movs	r2, #0
 800343e:	4d05      	ldr	r5, [pc, #20]	; (8003454 <_lseek_r+0x20>)
 8003440:	602a      	str	r2, [r5, #0]
 8003442:	461a      	mov	r2, r3
 8003444:	f7fd fe59 	bl	80010fa <_lseek>
 8003448:	1c43      	adds	r3, r0, #1
 800344a:	d102      	bne.n	8003452 <_lseek_r+0x1e>
 800344c:	682b      	ldr	r3, [r5, #0]
 800344e:	b103      	cbz	r3, 8003452 <_lseek_r+0x1e>
 8003450:	6023      	str	r3, [r4, #0]
 8003452:	bd38      	pop	{r3, r4, r5, pc}
 8003454:	20000594 	.word	0x20000594

08003458 <_read_r>:
 8003458:	b538      	push	{r3, r4, r5, lr}
 800345a:	4604      	mov	r4, r0
 800345c:	4608      	mov	r0, r1
 800345e:	4611      	mov	r1, r2
 8003460:	2200      	movs	r2, #0
 8003462:	4d05      	ldr	r5, [pc, #20]	; (8003478 <_read_r+0x20>)
 8003464:	602a      	str	r2, [r5, #0]
 8003466:	461a      	mov	r2, r3
 8003468:	f7fd fe30 	bl	80010cc <_read>
 800346c:	1c43      	adds	r3, r0, #1
 800346e:	d102      	bne.n	8003476 <_read_r+0x1e>
 8003470:	682b      	ldr	r3, [r5, #0]
 8003472:	b103      	cbz	r3, 8003476 <_read_r+0x1e>
 8003474:	6023      	str	r3, [r4, #0]
 8003476:	bd38      	pop	{r3, r4, r5, pc}
 8003478:	20000594 	.word	0x20000594

0800347c <_write_r>:
 800347c:	b538      	push	{r3, r4, r5, lr}
 800347e:	4604      	mov	r4, r0
 8003480:	4608      	mov	r0, r1
 8003482:	4611      	mov	r1, r2
 8003484:	2200      	movs	r2, #0
 8003486:	4d05      	ldr	r5, [pc, #20]	; (800349c <_write_r+0x20>)
 8003488:	602a      	str	r2, [r5, #0]
 800348a:	461a      	mov	r2, r3
 800348c:	f7fd fbfa 	bl	8000c84 <_write>
 8003490:	1c43      	adds	r3, r0, #1
 8003492:	d102      	bne.n	800349a <_write_r+0x1e>
 8003494:	682b      	ldr	r3, [r5, #0]
 8003496:	b103      	cbz	r3, 800349a <_write_r+0x1e>
 8003498:	6023      	str	r3, [r4, #0]
 800349a:	bd38      	pop	{r3, r4, r5, pc}
 800349c:	20000594 	.word	0x20000594

080034a0 <__errno>:
 80034a0:	4b01      	ldr	r3, [pc, #4]	; (80034a8 <__errno+0x8>)
 80034a2:	6818      	ldr	r0, [r3, #0]
 80034a4:	4770      	bx	lr
 80034a6:	bf00      	nop
 80034a8:	20000064 	.word	0x20000064

080034ac <__libc_init_array>:
 80034ac:	b570      	push	{r4, r5, r6, lr}
 80034ae:	2600      	movs	r6, #0
 80034b0:	4d0c      	ldr	r5, [pc, #48]	; (80034e4 <__libc_init_array+0x38>)
 80034b2:	4c0d      	ldr	r4, [pc, #52]	; (80034e8 <__libc_init_array+0x3c>)
 80034b4:	1b64      	subs	r4, r4, r5
 80034b6:	10a4      	asrs	r4, r4, #2
 80034b8:	42a6      	cmp	r6, r4
 80034ba:	d109      	bne.n	80034d0 <__libc_init_array+0x24>
 80034bc:	f000 fd34 	bl	8003f28 <_init>
 80034c0:	2600      	movs	r6, #0
 80034c2:	4d0a      	ldr	r5, [pc, #40]	; (80034ec <__libc_init_array+0x40>)
 80034c4:	4c0a      	ldr	r4, [pc, #40]	; (80034f0 <__libc_init_array+0x44>)
 80034c6:	1b64      	subs	r4, r4, r5
 80034c8:	10a4      	asrs	r4, r4, #2
 80034ca:	42a6      	cmp	r6, r4
 80034cc:	d105      	bne.n	80034da <__libc_init_array+0x2e>
 80034ce:	bd70      	pop	{r4, r5, r6, pc}
 80034d0:	f855 3b04 	ldr.w	r3, [r5], #4
 80034d4:	4798      	blx	r3
 80034d6:	3601      	adds	r6, #1
 80034d8:	e7ee      	b.n	80034b8 <__libc_init_array+0xc>
 80034da:	f855 3b04 	ldr.w	r3, [r5], #4
 80034de:	4798      	blx	r3
 80034e0:	3601      	adds	r6, #1
 80034e2:	e7f2      	b.n	80034ca <__libc_init_array+0x1e>
 80034e4:	08003fe0 	.word	0x08003fe0
 80034e8:	08003fe0 	.word	0x08003fe0
 80034ec:	08003fe0 	.word	0x08003fe0
 80034f0:	08003fe4 	.word	0x08003fe4

080034f4 <__retarget_lock_init_recursive>:
 80034f4:	4770      	bx	lr

080034f6 <__retarget_lock_acquire_recursive>:
 80034f6:	4770      	bx	lr

080034f8 <__retarget_lock_release_recursive>:
 80034f8:	4770      	bx	lr
	...

080034fc <_free_r>:
 80034fc:	b538      	push	{r3, r4, r5, lr}
 80034fe:	4605      	mov	r5, r0
 8003500:	2900      	cmp	r1, #0
 8003502:	d040      	beq.n	8003586 <_free_r+0x8a>
 8003504:	f851 3c04 	ldr.w	r3, [r1, #-4]
 8003508:	1f0c      	subs	r4, r1, #4
 800350a:	2b00      	cmp	r3, #0
 800350c:	bfb8      	it	lt
 800350e:	18e4      	addlt	r4, r4, r3
 8003510:	f000 f8dc 	bl	80036cc <__malloc_lock>
 8003514:	4a1c      	ldr	r2, [pc, #112]	; (8003588 <_free_r+0x8c>)
 8003516:	6813      	ldr	r3, [r2, #0]
 8003518:	b933      	cbnz	r3, 8003528 <_free_r+0x2c>
 800351a:	6063      	str	r3, [r4, #4]
 800351c:	6014      	str	r4, [r2, #0]
 800351e:	4628      	mov	r0, r5
 8003520:	e8bd 4038 	ldmia.w	sp!, {r3, r4, r5, lr}
 8003524:	f000 b8d8 	b.w	80036d8 <__malloc_unlock>
 8003528:	42a3      	cmp	r3, r4
 800352a:	d908      	bls.n	800353e <_free_r+0x42>
 800352c:	6820      	ldr	r0, [r4, #0]
 800352e:	1821      	adds	r1, r4, r0
 8003530:	428b      	cmp	r3, r1
 8003532:	bf01      	itttt	eq
 8003534:	6819      	ldreq	r1, [r3, #0]
 8003536:	685b      	ldreq	r3, [r3, #4]
 8003538:	1809      	addeq	r1, r1, r0
 800353a:	6021      	streq	r1, [r4, #0]
 800353c:	e7ed      	b.n	800351a <_free_r+0x1e>
 800353e:	461a      	mov	r2, r3
 8003540:	685b      	ldr	r3, [r3, #4]
 8003542:	b10b      	cbz	r3, 8003548 <_free_r+0x4c>
 8003544:	42a3      	cmp	r3, r4
 8003546:	d9fa      	bls.n	800353e <_free_r+0x42>
 8003548:	6811      	ldr	r1, [r2, #0]
 800354a:	1850      	adds	r0, r2, r1
 800354c:	42a0      	cmp	r0, r4
 800354e:	d10b      	bne.n	8003568 <_free_r+0x6c>
 8003550:	6820      	ldr	r0, [r4, #0]
 8003552:	4401      	add	r1, r0
 8003554:	1850      	adds	r0, r2, r1
 8003556:	4283      	cmp	r3, r0
 8003558:	6011      	str	r1, [r2, #0]
 800355a:	d1e0      	bne.n	800351e <_free_r+0x22>
 800355c:	6818      	ldr	r0, [r3, #0]
 800355e:	685b      	ldr	r3, [r3, #4]
 8003560:	4408      	add	r0, r1
 8003562:	6010      	str	r0, [r2, #0]
 8003564:	6053      	str	r3, [r2, #4]
 8003566:	e7da      	b.n	800351e <_free_r+0x22>
 8003568:	d902      	bls.n	8003570 <_free_r+0x74>
 800356a:	230c      	movs	r3, #12
 800356c:	602b      	str	r3, [r5, #0]
 800356e:	e7d6      	b.n	800351e <_free_r+0x22>
 8003570:	6820      	ldr	r0, [r4, #0]
 8003572:	1821      	adds	r1, r4, r0
 8003574:	428b      	cmp	r3, r1
 8003576:	bf01      	itttt	eq
 8003578:	6819      	ldreq	r1, [r3, #0]
 800357a:	685b      	ldreq	r3, [r3, #4]
 800357c:	1809      	addeq	r1, r1, r0
 800357e:	6021      	streq	r1, [r4, #0]
 8003580:	6063      	str	r3, [r4, #4]
 8003582:	6054      	str	r4, [r2, #4]
 8003584:	e7cb      	b.n	800351e <_free_r+0x22>
 8003586:	bd38      	pop	{r3, r4, r5, pc}
 8003588:	2000059c 	.word	0x2000059c

0800358c <sbrk_aligned>:
 800358c:	b570      	push	{r4, r5, r6, lr}
 800358e:	4e0e      	ldr	r6, [pc, #56]	; (80035c8 <sbrk_aligned+0x3c>)
 8003590:	460c      	mov	r4, r1
 8003592:	6831      	ldr	r1, [r6, #0]
 8003594:	4605      	mov	r5, r0
 8003596:	b911      	cbnz	r1, 800359e <sbrk_aligned+0x12>
 8003598:	f000 fca8 	bl	8003eec <_sbrk_r>
 800359c:	6030      	str	r0, [r6, #0]
 800359e:	4621      	mov	r1, r4
 80035a0:	4628      	mov	r0, r5
 80035a2:	f000 fca3 	bl	8003eec <_sbrk_r>
 80035a6:	1c43      	adds	r3, r0, #1
 80035a8:	d00a      	beq.n	80035c0 <sbrk_aligned+0x34>
 80035aa:	1cc4      	adds	r4, r0, #3
 80035ac:	f024 0403 	bic.w	r4, r4, #3
 80035b0:	42a0      	cmp	r0, r4
 80035b2:	d007      	beq.n	80035c4 <sbrk_aligned+0x38>
 80035b4:	1a21      	subs	r1, r4, r0
 80035b6:	4628      	mov	r0, r5
 80035b8:	f000 fc98 	bl	8003eec <_sbrk_r>
 80035bc:	3001      	adds	r0, #1
 80035be:	d101      	bne.n	80035c4 <sbrk_aligned+0x38>
 80035c0:	f04f 34ff 	mov.w	r4, #4294967295
 80035c4:	4620      	mov	r0, r4
 80035c6:	bd70      	pop	{r4, r5, r6, pc}
 80035c8:	200005a0 	.word	0x200005a0

080035cc <_malloc_r>:
 80035cc:	e92d 43f8 	stmdb	sp!, {r3, r4, r5, r6, r7, r8, r9, lr}
 80035d0:	1ccd      	adds	r5, r1, #3
 80035d2:	f025 0503 	bic.w	r5, r5, #3
 80035d6:	3508      	adds	r5, #8
 80035d8:	2d0c      	cmp	r5, #12
 80035da:	bf38      	it	cc
 80035dc:	250c      	movcc	r5, #12
 80035de:	2d00      	cmp	r5, #0
 80035e0:	4607      	mov	r7, r0
 80035e2:	db01      	blt.n	80035e8 <_malloc_r+0x1c>
 80035e4:	42a9      	cmp	r1, r5
 80035e6:	d905      	bls.n	80035f4 <_malloc_r+0x28>
 80035e8:	230c      	movs	r3, #12
 80035ea:	2600      	movs	r6, #0
 80035ec:	603b      	str	r3, [r7, #0]
 80035ee:	4630      	mov	r0, r6
 80035f0:	e8bd 83f8 	ldmia.w	sp!, {r3, r4, r5, r6, r7, r8, r9, pc}
 80035f4:	f8df 80d0 	ldr.w	r8, [pc, #208]	; 80036c8 <_malloc_r+0xfc>
 80035f8:	f000 f868 	bl	80036cc <__malloc_lock>
 80035fc:	f8d8 3000 	ldr.w	r3, [r8]
 8003600:	461c      	mov	r4, r3
 8003602:	bb5c      	cbnz	r4, 800365c <_malloc_r+0x90>
 8003604:	4629      	mov	r1, r5
 8003606:	4638      	mov	r0, r7
 8003608:	f7ff ffc0 	bl	800358c <sbrk_aligned>
 800360c:	1c43      	adds	r3, r0, #1
 800360e:	4604      	mov	r4, r0
 8003610:	d155      	bne.n	80036be <_malloc_r+0xf2>
 8003612:	f8d8 4000 	ldr.w	r4, [r8]
 8003616:	4626      	mov	r6, r4
 8003618:	2e00      	cmp	r6, #0
 800361a:	d145      	bne.n	80036a8 <_malloc_r+0xdc>
 800361c:	2c00      	cmp	r4, #0
 800361e:	d048      	beq.n	80036b2 <_malloc_r+0xe6>
 8003620:	6823      	ldr	r3, [r4, #0]
 8003622:	4631      	mov	r1, r6
 8003624:	4638      	mov	r0, r7
 8003626:	eb04 0903 	add.w	r9, r4, r3
 800362a:	f000 fc5f 	bl	8003eec <_sbrk_r>
 800362e:	4581      	cmp	r9, r0
 8003630:	d13f      	bne.n	80036b2 <_malloc_r+0xe6>
 8003632:	6821      	ldr	r1, [r4, #0]
 8003634:	4638      	mov	r0, r7
 8003636:	1a6d      	subs	r5, r5, r1
 8003638:	4629      	mov	r1, r5
 800363a:	f7ff ffa7 	bl	800358c <sbrk_aligned>
 800363e:	3001      	adds	r0, #1
 8003640:	d037      	beq.n	80036b2 <_malloc_r+0xe6>
 8003642:	6823      	ldr	r3, [r4, #0]
 8003644:	442b      	add	r3, r5
 8003646:	6023      	str	r3, [r4, #0]
 8003648:	f8d8 3000 	ldr.w	r3, [r8]
 800364c:	2b00      	cmp	r3, #0
 800364e:	d038      	beq.n	80036c2 <_malloc_r+0xf6>
 8003650:	685a      	ldr	r2, [r3, #4]
 8003652:	42a2      	cmp	r2, r4
 8003654:	d12b      	bne.n	80036ae <_malloc_r+0xe2>
 8003656:	2200      	movs	r2, #0
 8003658:	605a      	str	r2, [r3, #4]
 800365a:	e00f      	b.n	800367c <_malloc_r+0xb0>
 800365c:	6822      	ldr	r2, [r4, #0]
 800365e:	1b52      	subs	r2, r2, r5
 8003660:	d41f      	bmi.n	80036a2 <_malloc_r+0xd6>
 8003662:	2a0b      	cmp	r2, #11
 8003664:	d917      	bls.n	8003696 <_malloc_r+0xca>
 8003666:	1961      	adds	r1, r4, r5
 8003668:	42a3      	cmp	r3, r4
 800366a:	6025      	str	r5, [r4, #0]
 800366c:	bf18      	it	ne
 800366e:	6059      	strne	r1, [r3, #4]
 8003670:	6863      	ldr	r3, [r4, #4]
 8003672:	bf08      	it	eq
 8003674:	f8c8 1000 	streq.w	r1, [r8]
 8003678:	5162      	str	r2, [r4, r5]
 800367a:	604b      	str	r3, [r1, #4]
 800367c:	4638      	mov	r0, r7
 800367e:	f104 060b 	add.w	r6, r4, #11
 8003682:	f000 f829 	bl	80036d8 <__malloc_unlock>
 8003686:	f026 0607 	bic.w	r6, r6, #7
 800368a:	1d23      	adds	r3, r4, #4
 800368c:	1af2      	subs	r2, r6, r3
 800368e:	d0ae      	beq.n	80035ee <_malloc_r+0x22>
 8003690:	1b9b      	subs	r3, r3, r6
 8003692:	50a3      	str	r3, [r4, r2]
 8003694:	e7ab      	b.n	80035ee <_malloc_r+0x22>
 8003696:	42a3      	cmp	r3, r4
 8003698:	6862      	ldr	r2, [r4, #4]
 800369a:	d1dd      	bne.n	8003658 <_malloc_r+0x8c>
 800369c:	f8c8 2000 	str.w	r2, [r8]
 80036a0:	e7ec      	b.n	800367c <_malloc_r+0xb0>
 80036a2:	4623      	mov	r3, r4
 80036a4:	6864      	ldr	r4, [r4, #4]
 80036a6:	e7ac      	b.n	8003602 <_malloc_r+0x36>
 80036a8:	4634      	mov	r4, r6
 80036aa:	6876      	ldr	r6, [r6, #4]
 80036ac:	e7b4      	b.n	8003618 <_malloc_r+0x4c>
 80036ae:	4613      	mov	r3, r2
 80036b0:	e7cc      	b.n	800364c <_malloc_r+0x80>
 80036b2:	230c      	movs	r3, #12
 80036b4:	4638      	mov	r0, r7
 80036b6:	603b      	str	r3, [r7, #0]
 80036b8:	f000 f80e 	bl	80036d8 <__malloc_unlock>
 80036bc:	e797      	b.n	80035ee <_malloc_r+0x22>
 80036be:	6025      	str	r5, [r4, #0]
 80036c0:	e7dc      	b.n	800367c <_malloc_r+0xb0>
 80036c2:	605b      	str	r3, [r3, #4]
 80036c4:	deff      	udf	#255	; 0xff
 80036c6:	bf00      	nop
 80036c8:	2000059c 	.word	0x2000059c

080036cc <__malloc_lock>:
 80036cc:	4801      	ldr	r0, [pc, #4]	; (80036d4 <__malloc_lock+0x8>)
 80036ce:	f7ff bf12 	b.w	80034f6 <__retarget_lock_acquire_recursive>
 80036d2:	bf00      	nop
 80036d4:	20000598 	.word	0x20000598

080036d8 <__malloc_unlock>:
 80036d8:	4801      	ldr	r0, [pc, #4]	; (80036e0 <__malloc_unlock+0x8>)
 80036da:	f7ff bf0d 	b.w	80034f8 <__retarget_lock_release_recursive>
 80036de:	bf00      	nop
 80036e0:	20000598 	.word	0x20000598

080036e4 <__sfputc_r>:
 80036e4:	6893      	ldr	r3, [r2, #8]
 80036e6:	b410      	push	{r4}
 80036e8:	3b01      	subs	r3, #1
 80036ea:	2b00      	cmp	r3, #0
 80036ec:	6093      	str	r3, [r2, #8]
 80036ee:	da07      	bge.n	8003700 <__sfputc_r+0x1c>
 80036f0:	6994      	ldr	r4, [r2, #24]
 80036f2:	42a3      	cmp	r3, r4
 80036f4:	db01      	blt.n	80036fa <__sfputc_r+0x16>
 80036f6:	290a      	cmp	r1, #10
 80036f8:	d102      	bne.n	8003700 <__sfputc_r+0x1c>
 80036fa:	bc10      	pop	{r4}
 80036fc:	f7ff bded 	b.w	80032da <__swbuf_r>
 8003700:	6813      	ldr	r3, [r2, #0]
 8003702:	1c58      	adds	r0, r3, #1
 8003704:	6010      	str	r0, [r2, #0]
 8003706:	7019      	strb	r1, [r3, #0]
 8003708:	4608      	mov	r0, r1
 800370a:	bc10      	pop	{r4}
 800370c:	4770      	bx	lr

0800370e <__sfputs_r>:
 800370e:	b5f8      	push	{r3, r4, r5, r6, r7, lr}
 8003710:	4606      	mov	r6, r0
 8003712:	460f      	mov	r7, r1
 8003714:	4614      	mov	r4, r2
 8003716:	18d5      	adds	r5, r2, r3
 8003718:	42ac      	cmp	r4, r5
 800371a:	d101      	bne.n	8003720 <__sfputs_r+0x12>
 800371c:	2000      	movs	r0, #0
 800371e:	e007      	b.n	8003730 <__sfputs_r+0x22>
 8003720:	463a      	mov	r2, r7
 8003722:	4630      	mov	r0, r6
 8003724:	f814 1b01 	ldrb.w	r1, [r4], #1
 8003728:	f7ff ffdc 	bl	80036e4 <__sfputc_r>
 800372c:	1c43      	adds	r3, r0, #1
 800372e:	d1f3      	bne.n	8003718 <__sfputs_r+0xa>
 8003730:	bdf8      	pop	{r3, r4, r5, r6, r7, pc}
	...

08003734 <_vfiprintf_r>:
 8003734:	e92d 4ff0 	stmdb	sp!, {r4, r5, r6, r7, r8, r9, sl, fp, lr}
 8003738:	460d      	mov	r5, r1
 800373a:	4614      	mov	r4, r2
 800373c:	4698      	mov	r8, r3
 800373e:	4606      	mov	r6, r0
 8003740:	b09d      	sub	sp, #116	; 0x74
 8003742:	b118      	cbz	r0, 800374c <_vfiprintf_r+0x18>
 8003744:	6a03      	ldr	r3, [r0, #32]
 8003746:	b90b      	cbnz	r3, 800374c <_vfiprintf_r+0x18>
 8003748:	f7ff fce0 	bl	800310c <__sinit>
 800374c:	6e6b      	ldr	r3, [r5, #100]	; 0x64
 800374e:	07d9      	lsls	r1, r3, #31
 8003750:	d405      	bmi.n	800375e <_vfiprintf_r+0x2a>
 8003752:	89ab      	ldrh	r3, [r5, #12]
 8003754:	059a      	lsls	r2, r3, #22
 8003756:	d402      	bmi.n	800375e <_vfiprintf_r+0x2a>
 8003758:	6da8      	ldr	r0, [r5, #88]	; 0x58
 800375a:	f7ff fecc 	bl	80034f6 <__retarget_lock_acquire_recursive>
 800375e:	89ab      	ldrh	r3, [r5, #12]
 8003760:	071b      	lsls	r3, r3, #28
 8003762:	d501      	bpl.n	8003768 <_vfiprintf_r+0x34>
 8003764:	692b      	ldr	r3, [r5, #16]
 8003766:	b99b      	cbnz	r3, 8003790 <_vfiprintf_r+0x5c>
 8003768:	4629      	mov	r1, r5
 800376a:	4630      	mov	r0, r6
 800376c:	f7ff fdf2 	bl	8003354 <__swsetup_r>
 8003770:	b170      	cbz	r0, 8003790 <_vfiprintf_r+0x5c>
 8003772:	6e6b      	ldr	r3, [r5, #100]	; 0x64
 8003774:	07dc      	lsls	r4, r3, #31
 8003776:	d504      	bpl.n	8003782 <_vfiprintf_r+0x4e>
 8003778:	f04f 30ff 	mov.w	r0, #4294967295
 800377c:	b01d      	add	sp, #116	; 0x74
 800377e:	e8bd 8ff0 	ldmia.w	sp!, {r4, r5, r6, r7, r8, r9, sl, fp, pc}
 8003782:	89ab      	ldrh	r3, [r5, #12]
 8003784:	0598      	lsls	r0, r3, #22
 8003786:	d4f7      	bmi.n	8003778 <_vfiprintf_r+0x44>
 8003788:	6da8      	ldr	r0, [r5, #88]	; 0x58
 800378a:	f7ff feb5 	bl	80034f8 <__retarget_lock_release_recursive>
 800378e:	e7f3      	b.n	8003778 <_vfiprintf_r+0x44>
 8003790:	2300      	movs	r3, #0
 8003792:	9309      	str	r3, [sp, #36]	; 0x24
 8003794:	2320      	movs	r3, #32
 8003796:	f88d 3029 	strb.w	r3, [sp, #41]	; 0x29
 800379a:	2330      	movs	r3, #48	; 0x30
 800379c:	f04f 0901 	mov.w	r9, #1
 80037a0:	f8cd 800c 	str.w	r8, [sp, #12]
 80037a4:	f8df 81ac 	ldr.w	r8, [pc, #428]	; 8003954 <_vfiprintf_r+0x220>
 80037a8:	f88d 302a 	strb.w	r3, [sp, #42]	; 0x2a
 80037ac:	4623      	mov	r3, r4
 80037ae:	469a      	mov	sl, r3
 80037b0:	f813 2b01 	ldrb.w	r2, [r3], #1
 80037b4:	b10a      	cbz	r2, 80037ba <_vfiprintf_r+0x86>
 80037b6:	2a25      	cmp	r2, #37	; 0x25
 80037b8:	d1f9      	bne.n	80037ae <_vfiprintf_r+0x7a>
 80037ba:	ebba 0b04 	subs.w	fp, sl, r4
 80037be:	d00b      	beq.n	80037d8 <_vfiprintf_r+0xa4>
 80037c0:	465b      	mov	r3, fp
 80037c2:	4622      	mov	r2, r4
 80037c4:	4629      	mov	r1, r5
 80037c6:	4630      	mov	r0, r6
 80037c8:	f7ff ffa1 	bl	800370e <__sfputs_r>
 80037cc:	3001      	adds	r0, #1
 80037ce:	f000 80a9 	beq.w	8003924 <_vfiprintf_r+0x1f0>
 80037d2:	9a09      	ldr	r2, [sp, #36]	; 0x24
 80037d4:	445a      	add	r2, fp
 80037d6:	9209      	str	r2, [sp, #36]	; 0x24
 80037d8:	f89a 3000 	ldrb.w	r3, [sl]
 80037dc:	2b00      	cmp	r3, #0
 80037de:	f000 80a1 	beq.w	8003924 <_vfiprintf_r+0x1f0>
 80037e2:	2300      	movs	r3, #0
 80037e4:	f04f 32ff 	mov.w	r2, #4294967295
 80037e8:	e9cd 2305 	strd	r2, r3, [sp, #20]
 80037ec:	f10a 0a01 	add.w	sl, sl, #1
 80037f0:	9304      	str	r3, [sp, #16]
 80037f2:	9307      	str	r3, [sp, #28]
 80037f4:	f88d 3053 	strb.w	r3, [sp, #83]	; 0x53
 80037f8:	931a      	str	r3, [sp, #104]	; 0x68
 80037fa:	4654      	mov	r4, sl
 80037fc:	2205      	movs	r2, #5
 80037fe:	f814 1b01 	ldrb.w	r1, [r4], #1
 8003802:	4854      	ldr	r0, [pc, #336]	; (8003954 <_vfiprintf_r+0x220>)
 8003804:	f000 fb82 	bl	8003f0c <memchr>
 8003808:	9a04      	ldr	r2, [sp, #16]
 800380a:	b9d8      	cbnz	r0, 8003844 <_vfiprintf_r+0x110>
 800380c:	06d1      	lsls	r1, r2, #27
 800380e:	bf44      	itt	mi
 8003810:	2320      	movmi	r3, #32
 8003812:	f88d 3053 	strbmi.w	r3, [sp, #83]	; 0x53
 8003816:	0713      	lsls	r3, r2, #28
 8003818:	bf44      	itt	mi
 800381a:	232b      	movmi	r3, #43	; 0x2b
 800381c:	f88d 3053 	strbmi.w	r3, [sp, #83]	; 0x53
 8003820:	f89a 3000 	ldrb.w	r3, [sl]
 8003824:	2b2a      	cmp	r3, #42	; 0x2a
 8003826:	d015      	beq.n	8003854 <_vfiprintf_r+0x120>
 8003828:	4654      	mov	r4, sl
 800382a:	2000      	movs	r0, #0
 800382c:	f04f 0c0a 	mov.w	ip, #10
 8003830:	9a07      	ldr	r2, [sp, #28]
 8003832:	4621      	mov	r1, r4
 8003834:	f811 3b01 	ldrb.w	r3, [r1], #1
 8003838:	3b30      	subs	r3, #48	; 0x30
 800383a:	2b09      	cmp	r3, #9
 800383c:	d94d      	bls.n	80038da <_vfiprintf_r+0x1a6>
 800383e:	b1b0      	cbz	r0, 800386e <_vfiprintf_r+0x13a>
 8003840:	9207      	str	r2, [sp, #28]
 8003842:	e014      	b.n	800386e <_vfiprintf_r+0x13a>
 8003844:	eba0 0308 	sub.w	r3, r0, r8
 8003848:	fa09 f303 	lsl.w	r3, r9, r3
 800384c:	4313      	orrs	r3, r2
 800384e:	46a2      	mov	sl, r4
 8003850:	9304      	str	r3, [sp, #16]
 8003852:	e7d2      	b.n	80037fa <_vfiprintf_r+0xc6>
 8003854:	9b03      	ldr	r3, [sp, #12]
 8003856:	1d19      	adds	r1, r3, #4
 8003858:	681b      	ldr	r3, [r3, #0]
 800385a:	9103      	str	r1, [sp, #12]
 800385c:	2b00      	cmp	r3, #0
 800385e:	bfbb      	ittet	lt
 8003860:	425b      	neglt	r3, r3
 8003862:	f042 0202 	orrlt.w	r2, r2, #2
 8003866:	9307      	strge	r3, [sp, #28]
 8003868:	9307      	strlt	r3, [sp, #28]
 800386a:	bfb8      	it	lt
 800386c:	9204      	strlt	r2, [sp, #16]
 800386e:	7823      	ldrb	r3, [r4, #0]
 8003870:	2b2e      	cmp	r3, #46	; 0x2e
 8003872:	d10c      	bne.n	800388e <_vfiprintf_r+0x15a>
 8003874:	7863      	ldrb	r3, [r4, #1]
 8003876:	2b2a      	cmp	r3, #42	; 0x2a
 8003878:	d134      	bne.n	80038e4 <_vfiprintf_r+0x1b0>
 800387a:	9b03      	ldr	r3, [sp, #12]
 800387c:	3402      	adds	r4, #2
 800387e:	1d1a      	adds	r2, r3, #4
 8003880:	681b      	ldr	r3, [r3, #0]
 8003882:	9203      	str	r2, [sp, #12]
 8003884:	2b00      	cmp	r3, #0
 8003886:	bfb8      	it	lt
 8003888:	f04f 33ff 	movlt.w	r3, #4294967295
 800388c:	9305      	str	r3, [sp, #20]
 800388e:	f8df a0c8 	ldr.w	sl, [pc, #200]	; 8003958 <_vfiprintf_r+0x224>
 8003892:	2203      	movs	r2, #3
 8003894:	4650      	mov	r0, sl
 8003896:	7821      	ldrb	r1, [r4, #0]
 8003898:	f000 fb38 	bl	8003f0c <memchr>
 800389c:	b138      	cbz	r0, 80038ae <_vfiprintf_r+0x17a>
 800389e:	2240      	movs	r2, #64	; 0x40
 80038a0:	9b04      	ldr	r3, [sp, #16]
 80038a2:	eba0 000a 	sub.w	r0, r0, sl
 80038a6:	4082      	lsls	r2, r0
 80038a8:	4313      	orrs	r3, r2
 80038aa:	3401      	adds	r4, #1
 80038ac:	9304      	str	r3, [sp, #16]
 80038ae:	f814 1b01 	ldrb.w	r1, [r4], #1
 80038b2:	2206      	movs	r2, #6
 80038b4:	4829      	ldr	r0, [pc, #164]	; (800395c <_vfiprintf_r+0x228>)
 80038b6:	f88d 1028 	strb.w	r1, [sp, #40]	; 0x28
 80038ba:	f000 fb27 	bl	8003f0c <memchr>
 80038be:	2800      	cmp	r0, #0
 80038c0:	d03f      	beq.n	8003942 <_vfiprintf_r+0x20e>
 80038c2:	4b27      	ldr	r3, [pc, #156]	; (8003960 <_vfiprintf_r+0x22c>)
 80038c4:	bb1b      	cbnz	r3, 800390e <_vfiprintf_r+0x1da>
 80038c6:	9b03      	ldr	r3, [sp, #12]
 80038c8:	3307      	adds	r3, #7
 80038ca:	f023 0307 	bic.w	r3, r3, #7
 80038ce:	3308      	adds	r3, #8
 80038d0:	9303      	str	r3, [sp, #12]
 80038d2:	9b09      	ldr	r3, [sp, #36]	; 0x24
 80038d4:	443b      	add	r3, r7
 80038d6:	9309      	str	r3, [sp, #36]	; 0x24
 80038d8:	e768      	b.n	80037ac <_vfiprintf_r+0x78>
 80038da:	460c      	mov	r4, r1
 80038dc:	2001      	movs	r0, #1
 80038de:	fb0c 3202 	mla	r2, ip, r2, r3
 80038e2:	e7a6      	b.n	8003832 <_vfiprintf_r+0xfe>
 80038e4:	2300      	movs	r3, #0
 80038e6:	f04f 0c0a 	mov.w	ip, #10
 80038ea:	4619      	mov	r1, r3
 80038ec:	3401      	adds	r4, #1
 80038ee:	9305      	str	r3, [sp, #20]
 80038f0:	4620      	mov	r0, r4
 80038f2:	f810 2b01 	ldrb.w	r2, [r0], #1
 80038f6:	3a30      	subs	r2, #48	; 0x30
 80038f8:	2a09      	cmp	r2, #9
 80038fa:	d903      	bls.n	8003904 <_vfiprintf_r+0x1d0>
 80038fc:	2b00      	cmp	r3, #0
 80038fe:	d0c6      	beq.n	800388e <_vfiprintf_r+0x15a>
 8003900:	9105      	str	r1, [sp, #20]
 8003902:	e7c4      	b.n	800388e <_vfiprintf_r+0x15a>
 8003904:	4604      	mov	r4, r0
 8003906:	2301      	movs	r3, #1
 8003908:	fb0c 2101 	mla	r1, ip, r1, r2
 800390c:	e7f0      	b.n	80038f0 <_vfiprintf_r+0x1bc>
 800390e:	ab03      	add	r3, sp, #12
 8003910:	9300      	str	r3, [sp, #0]
 8003912:	462a      	mov	r2, r5
 8003914:	4630      	mov	r0, r6
 8003916:	4b13      	ldr	r3, [pc, #76]	; (8003964 <_vfiprintf_r+0x230>)
 8003918:	a904      	add	r1, sp, #16
 800391a:	f3af 8000 	nop.w
 800391e:	4607      	mov	r7, r0
 8003920:	1c78      	adds	r0, r7, #1
 8003922:	d1d6      	bne.n	80038d2 <_vfiprintf_r+0x19e>
 8003924:	6e6b      	ldr	r3, [r5, #100]	; 0x64
 8003926:	07d9      	lsls	r1, r3, #31
 8003928:	d405      	bmi.n	8003936 <_vfiprintf_r+0x202>
 800392a:	89ab      	ldrh	r3, [r5, #12]
 800392c:	059a      	lsls	r2, r3, #22
 800392e:	d402      	bmi.n	8003936 <_vfiprintf_r+0x202>
 8003930:	6da8      	ldr	r0, [r5, #88]	; 0x58
 8003932:	f7ff fde1 	bl	80034f8 <__retarget_lock_release_recursive>
 8003936:	89ab      	ldrh	r3, [r5, #12]
 8003938:	065b      	lsls	r3, r3, #25
 800393a:	f53f af1d 	bmi.w	8003778 <_vfiprintf_r+0x44>
 800393e:	9809      	ldr	r0, [sp, #36]	; 0x24
 8003940:	e71c      	b.n	800377c <_vfiprintf_r+0x48>
 8003942:	ab03      	add	r3, sp, #12
 8003944:	9300      	str	r3, [sp, #0]
 8003946:	462a      	mov	r2, r5
 8003948:	4630      	mov	r0, r6
 800394a:	4b06      	ldr	r3, [pc, #24]	; (8003964 <_vfiprintf_r+0x230>)
 800394c:	a904      	add	r1, sp, #16
 800394e:	f000 f87d 	bl	8003a4c <_printf_i>
 8003952:	e7e4      	b.n	800391e <_vfiprintf_r+0x1ea>
 8003954:	08003faa 	.word	0x08003faa
 8003958:	08003fb0 	.word	0x08003fb0
 800395c:	08003fb4 	.word	0x08003fb4
 8003960:	00000000 	.word	0x00000000
 8003964:	0800370f 	.word	0x0800370f

08003968 <_printf_common>:
 8003968:	e92d 47f0 	stmdb	sp!, {r4, r5, r6, r7, r8, r9, sl, lr}
 800396c:	4616      	mov	r6, r2
 800396e:	4699      	mov	r9, r3
 8003970:	688a      	ldr	r2, [r1, #8]
 8003972:	690b      	ldr	r3, [r1, #16]
 8003974:	4607      	mov	r7, r0
 8003976:	4293      	cmp	r3, r2
 8003978:	bfb8      	it	lt
 800397a:	4613      	movlt	r3, r2
 800397c:	6033      	str	r3, [r6, #0]
 800397e:	f891 2043 	ldrb.w	r2, [r1, #67]	; 0x43
 8003982:	460c      	mov	r4, r1
 8003984:	f8dd 8020 	ldr.w	r8, [sp, #32]
 8003988:	b10a      	cbz	r2, 800398e <_printf_common+0x26>
 800398a:	3301      	adds	r3, #1
 800398c:	6033      	str	r3, [r6, #0]
 800398e:	6823      	ldr	r3, [r4, #0]
 8003990:	0699      	lsls	r1, r3, #26
 8003992:	bf42      	ittt	mi
 8003994:	6833      	ldrmi	r3, [r6, #0]
 8003996:	3302      	addmi	r3, #2
 8003998:	6033      	strmi	r3, [r6, #0]
 800399a:	6825      	ldr	r5, [r4, #0]
 800399c:	f015 0506 	ands.w	r5, r5, #6
 80039a0:	d106      	bne.n	80039b0 <_printf_common+0x48>
 80039a2:	f104 0a19 	add.w	sl, r4, #25
 80039a6:	68e3      	ldr	r3, [r4, #12]
 80039a8:	6832      	ldr	r2, [r6, #0]
 80039aa:	1a9b      	subs	r3, r3, r2
 80039ac:	42ab      	cmp	r3, r5
 80039ae:	dc2b      	bgt.n	8003a08 <_printf_common+0xa0>
 80039b0:	f894 2043 	ldrb.w	r2, [r4, #67]	; 0x43
 80039b4:	1e13      	subs	r3, r2, #0
 80039b6:	6822      	ldr	r2, [r4, #0]
 80039b8:	bf18      	it	ne
 80039ba:	2301      	movne	r3, #1
 80039bc:	0692      	lsls	r2, r2, #26
 80039be:	d430      	bmi.n	8003a22 <_printf_common+0xba>
 80039c0:	4649      	mov	r1, r9
 80039c2:	4638      	mov	r0, r7
 80039c4:	f104 0243 	add.w	r2, r4, #67	; 0x43
 80039c8:	47c0      	blx	r8
 80039ca:	3001      	adds	r0, #1
 80039cc:	d023      	beq.n	8003a16 <_printf_common+0xae>
 80039ce:	6823      	ldr	r3, [r4, #0]
 80039d0:	6922      	ldr	r2, [r4, #16]
 80039d2:	f003 0306 	and.w	r3, r3, #6
 80039d6:	2b04      	cmp	r3, #4
 80039d8:	bf14      	ite	ne
 80039da:	2500      	movne	r5, #0
 80039dc:	6833      	ldreq	r3, [r6, #0]
 80039de:	f04f 0600 	mov.w	r6, #0
 80039e2:	bf08      	it	eq
 80039e4:	68e5      	ldreq	r5, [r4, #12]
 80039e6:	f104 041a 	add.w	r4, r4, #26
 80039ea:	bf08      	it	eq
 80039ec:	1aed      	subeq	r5, r5, r3
 80039ee:	f854 3c12 	ldr.w	r3, [r4, #-18]
 80039f2:	bf08      	it	eq
 80039f4:	ea25 75e5 	biceq.w	r5, r5, r5, asr #31
 80039f8:	4293      	cmp	r3, r2
 80039fa:	bfc4      	itt	gt
 80039fc:	1a9b      	subgt	r3, r3, r2
 80039fe:	18ed      	addgt	r5, r5, r3
 8003a00:	42b5      	cmp	r5, r6
 8003a02:	d11a      	bne.n	8003a3a <_printf_common+0xd2>
 8003a04:	2000      	movs	r0, #0
 8003a06:	e008      	b.n	8003a1a <_printf_common+0xb2>
 8003a08:	2301      	movs	r3, #1
 8003a0a:	4652      	mov	r2, sl
 8003a0c:	4649      	mov	r1, r9
 8003a0e:	4638      	mov	r0, r7
 8003a10:	47c0      	blx	r8
 8003a12:	3001      	adds	r0, #1
 8003a14:	d103      	bne.n	8003a1e <_printf_common+0xb6>
 8003a16:	f04f 30ff 	mov.w	r0, #4294967295
 8003a1a:	e8bd 87f0 	ldmia.w	sp!, {r4, r5, r6, r7, r8, r9, sl, pc}
 8003a1e:	3501      	adds	r5, #1
 8003a20:	e7c1      	b.n	80039a6 <_printf_common+0x3e>
 8003a22:	2030      	movs	r0, #48	; 0x30
 8003a24:	18e1      	adds	r1, r4, r3
 8003a26:	f881 0043 	strb.w	r0, [r1, #67]	; 0x43
 8003a2a:	1c5a      	adds	r2, r3, #1
 8003a2c:	f894 1045 	ldrb.w	r1, [r4, #69]	; 0x45
 8003a30:	4422      	add	r2, r4
 8003a32:	3302      	adds	r3, #2
 8003a34:	f882 1043 	strb.w	r1, [r2, #67]	; 0x43
 8003a38:	e7c2      	b.n	80039c0 <_printf_common+0x58>
 8003a3a:	2301      	movs	r3, #1
 8003a3c:	4622      	mov	r2, r4
 8003a3e:	4649      	mov	r1, r9
 8003a40:	4638      	mov	r0, r7
 8003a42:	47c0      	blx	r8
 8003a44:	3001      	adds	r0, #1
 8003a46:	d0e6      	beq.n	8003a16 <_printf_common+0xae>
 8003a48:	3601      	adds	r6, #1
 8003a4a:	e7d9      	b.n	8003a00 <_printf_common+0x98>

08003a4c <_printf_i>:
 8003a4c:	e92d 47ff 	stmdb	sp!, {r0, r1, r2, r3, r4, r5, r6, r7, r8, r9, sl, lr}
 8003a50:	7e0f      	ldrb	r7, [r1, #24]
 8003a52:	4691      	mov	r9, r2
 8003a54:	2f78      	cmp	r7, #120	; 0x78
 8003a56:	4680      	mov	r8, r0
 8003a58:	460c      	mov	r4, r1
 8003a5a:	469a      	mov	sl, r3
 8003a5c:	9d0c      	ldr	r5, [sp, #48]	; 0x30
 8003a5e:	f101 0243 	add.w	r2, r1, #67	; 0x43
 8003a62:	d807      	bhi.n	8003a74 <_printf_i+0x28>
 8003a64:	2f62      	cmp	r7, #98	; 0x62
 8003a66:	d80a      	bhi.n	8003a7e <_printf_i+0x32>
 8003a68:	2f00      	cmp	r7, #0
 8003a6a:	f000 80d5 	beq.w	8003c18 <_printf_i+0x1cc>
 8003a6e:	2f58      	cmp	r7, #88	; 0x58
 8003a70:	f000 80c1 	beq.w	8003bf6 <_printf_i+0x1aa>
 8003a74:	f104 0542 	add.w	r5, r4, #66	; 0x42
 8003a78:	f884 7042 	strb.w	r7, [r4, #66]	; 0x42
 8003a7c:	e03a      	b.n	8003af4 <_printf_i+0xa8>
 8003a7e:	f1a7 0363 	sub.w	r3, r7, #99	; 0x63
 8003a82:	2b15      	cmp	r3, #21
 8003a84:	d8f6      	bhi.n	8003a74 <_printf_i+0x28>
 8003a86:	a101      	add	r1, pc, #4	; (adr r1, 8003a8c <_printf_i+0x40>)
 8003a88:	f851 f023 	ldr.w	pc, [r1, r3, lsl #2]
 8003a8c:	08003ae5 	.word	0x08003ae5
 8003a90:	08003af9 	.word	0x08003af9
 8003a94:	08003a75 	.word	0x08003a75
 8003a98:	08003a75 	.word	0x08003a75
 8003a9c:	08003a75 	.word	0x08003a75
 8003aa0:	08003a75 	.word	0x08003a75
 8003aa4:	08003af9 	.word	0x08003af9
 8003aa8:	08003a75 	.word	0x08003a75
 8003aac:	08003a75 	.word	0x08003a75
 8003ab0:	08003a75 	.word	0x08003a75
 8003ab4:	08003a75 	.word	0x08003a75
 8003ab8:	08003bff 	.word	0x08003bff
 8003abc:	08003b25 	.word	0x08003b25
 8003ac0:	08003bb9 	.word	0x08003bb9
 8003ac4:	08003a75 	.word	0x08003a75
 8003ac8:	08003a75 	.word	0x08003a75
 8003acc:	08003c21 	.word	0x08003c21
 8003ad0:	08003a75 	.word	0x08003a75
 8003ad4:	08003b25 	.word	0x08003b25
 8003ad8:	08003a75 	.word	0x08003a75
 8003adc:	08003a75 	.word	0x08003a75
 8003ae0:	08003bc1 	.word	0x08003bc1
 8003ae4:	682b      	ldr	r3, [r5, #0]
 8003ae6:	1d1a      	adds	r2, r3, #4
 8003ae8:	681b      	ldr	r3, [r3, #0]
 8003aea:	602a      	str	r2, [r5, #0]
 8003aec:	f104 0542 	add.w	r5, r4, #66	; 0x42
 8003af0:	f884 3042 	strb.w	r3, [r4, #66]	; 0x42
 8003af4:	2301      	movs	r3, #1
 8003af6:	e0a0      	b.n	8003c3a <_printf_i+0x1ee>
 8003af8:	6820      	ldr	r0, [r4, #0]
 8003afa:	682b      	ldr	r3, [r5, #0]
 8003afc:	0607      	lsls	r7, r0, #24
 8003afe:	f103 0104 	add.w	r1, r3, #4
 8003b02:	6029      	str	r1, [r5, #0]
 8003b04:	d501      	bpl.n	8003b0a <_printf_i+0xbe>
 8003b06:	681e      	ldr	r6, [r3, #0]
 8003b08:	e003      	b.n	8003b12 <_printf_i+0xc6>
 8003b0a:	0646      	lsls	r6, r0, #25
 8003b0c:	d5fb      	bpl.n	8003b06 <_printf_i+0xba>
 8003b0e:	f9b3 6000 	ldrsh.w	r6, [r3]
 8003b12:	2e00      	cmp	r6, #0
 8003b14:	da03      	bge.n	8003b1e <_printf_i+0xd2>
 8003b16:	232d      	movs	r3, #45	; 0x2d
 8003b18:	4276      	negs	r6, r6
 8003b1a:	f884 3043 	strb.w	r3, [r4, #67]	; 0x43
 8003b1e:	230a      	movs	r3, #10
 8003b20:	4859      	ldr	r0, [pc, #356]	; (8003c88 <_printf_i+0x23c>)
 8003b22:	e012      	b.n	8003b4a <_printf_i+0xfe>
 8003b24:	682b      	ldr	r3, [r5, #0]
 8003b26:	6820      	ldr	r0, [r4, #0]
 8003b28:	1d19      	adds	r1, r3, #4
 8003b2a:	6029      	str	r1, [r5, #0]
 8003b2c:	0605      	lsls	r5, r0, #24
 8003b2e:	d501      	bpl.n	8003b34 <_printf_i+0xe8>
 8003b30:	681e      	ldr	r6, [r3, #0]
 8003b32:	e002      	b.n	8003b3a <_printf_i+0xee>
 8003b34:	0641      	lsls	r1, r0, #25
 8003b36:	d5fb      	bpl.n	8003b30 <_printf_i+0xe4>
 8003b38:	881e      	ldrh	r6, [r3, #0]
 8003b3a:	2f6f      	cmp	r7, #111	; 0x6f
 8003b3c:	bf0c      	ite	eq
 8003b3e:	2308      	moveq	r3, #8
 8003b40:	230a      	movne	r3, #10
 8003b42:	4851      	ldr	r0, [pc, #324]	; (8003c88 <_printf_i+0x23c>)
 8003b44:	2100      	movs	r1, #0
 8003b46:	f884 1043 	strb.w	r1, [r4, #67]	; 0x43
 8003b4a:	6865      	ldr	r5, [r4, #4]
 8003b4c:	2d00      	cmp	r5, #0
 8003b4e:	bfa8      	it	ge
 8003b50:	6821      	ldrge	r1, [r4, #0]
 8003b52:	60a5      	str	r5, [r4, #8]
 8003b54:	bfa4      	itt	ge
 8003b56:	f021 0104 	bicge.w	r1, r1, #4
 8003b5a:	6021      	strge	r1, [r4, #0]
 8003b5c:	b90e      	cbnz	r6, 8003b62 <_printf_i+0x116>
 8003b5e:	2d00      	cmp	r5, #0
 8003b60:	d04b      	beq.n	8003bfa <_printf_i+0x1ae>
 8003b62:	4615      	mov	r5, r2
 8003b64:	fbb6 f1f3 	udiv	r1, r6, r3
 8003b68:	fb03 6711 	mls	r7, r3, r1, r6
 8003b6c:	5dc7      	ldrb	r7, [r0, r7]
 8003b6e:	f805 7d01 	strb.w	r7, [r5, #-1]!
 8003b72:	4637      	mov	r7, r6
 8003b74:	42bb      	cmp	r3, r7
 8003b76:	460e      	mov	r6, r1
 8003b78:	d9f4      	bls.n	8003b64 <_printf_i+0x118>
 8003b7a:	2b08      	cmp	r3, #8
 8003b7c:	d10b      	bne.n	8003b96 <_printf_i+0x14a>
 8003b7e:	6823      	ldr	r3, [r4, #0]
 8003b80:	07de      	lsls	r6, r3, #31
 8003b82:	d508      	bpl.n	8003b96 <_printf_i+0x14a>
 8003b84:	6923      	ldr	r3, [r4, #16]
 8003b86:	6861      	ldr	r1, [r4, #4]
 8003b88:	4299      	cmp	r1, r3
 8003b8a:	bfde      	ittt	le
 8003b8c:	2330      	movle	r3, #48	; 0x30
 8003b8e:	f805 3c01 	strble.w	r3, [r5, #-1]
 8003b92:	f105 35ff 	addle.w	r5, r5, #4294967295
 8003b96:	1b52      	subs	r2, r2, r5
 8003b98:	6122      	str	r2, [r4, #16]
 8003b9a:	464b      	mov	r3, r9
 8003b9c:	4621      	mov	r1, r4
 8003b9e:	4640      	mov	r0, r8
 8003ba0:	f8cd a000 	str.w	sl, [sp]
 8003ba4:	aa03      	add	r2, sp, #12
 8003ba6:	f7ff fedf 	bl	8003968 <_printf_common>
 8003baa:	3001      	adds	r0, #1
 8003bac:	d14a      	bne.n	8003c44 <_printf_i+0x1f8>
 8003bae:	f04f 30ff 	mov.w	r0, #4294967295
 8003bb2:	b004      	add	sp, #16
 8003bb4:	e8bd 87f0 	ldmia.w	sp!, {r4, r5, r6, r7, r8, r9, sl, pc}
 8003bb8:	6823      	ldr	r3, [r4, #0]
 8003bba:	f043 0320 	orr.w	r3, r3, #32
 8003bbe:	6023      	str	r3, [r4, #0]
 8003bc0:	2778      	movs	r7, #120	; 0x78
 8003bc2:	4832      	ldr	r0, [pc, #200]	; (8003c8c <_printf_i+0x240>)
 8003bc4:	f884 7045 	strb.w	r7, [r4, #69]	; 0x45
 8003bc8:	6823      	ldr	r3, [r4, #0]
 8003bca:	6829      	ldr	r1, [r5, #0]
 8003bcc:	061f      	lsls	r7, r3, #24
 8003bce:	f851 6b04 	ldr.w	r6, [r1], #4
 8003bd2:	d402      	bmi.n	8003bda <_printf_i+0x18e>
 8003bd4:	065f      	lsls	r7, r3, #25
 8003bd6:	bf48      	it	mi
 8003bd8:	b2b6      	uxthmi	r6, r6
 8003bda:	07df      	lsls	r7, r3, #31
 8003bdc:	bf48      	it	mi
 8003bde:	f043 0320 	orrmi.w	r3, r3, #32
 8003be2:	6029      	str	r1, [r5, #0]
 8003be4:	bf48      	it	mi
 8003be6:	6023      	strmi	r3, [r4, #0]
 8003be8:	b91e      	cbnz	r6, 8003bf2 <_printf_i+0x1a6>
 8003bea:	6823      	ldr	r3, [r4, #0]
 8003bec:	f023 0320 	bic.w	r3, r3, #32
 8003bf0:	6023      	str	r3, [r4, #0]
 8003bf2:	2310      	movs	r3, #16
 8003bf4:	e7a6      	b.n	8003b44 <_printf_i+0xf8>
 8003bf6:	4824      	ldr	r0, [pc, #144]	; (8003c88 <_printf_i+0x23c>)
 8003bf8:	e7e4      	b.n	8003bc4 <_printf_i+0x178>
 8003bfa:	4615      	mov	r5, r2
 8003bfc:	e7bd      	b.n	8003b7a <_printf_i+0x12e>
 8003bfe:	682b      	ldr	r3, [r5, #0]
 8003c00:	6826      	ldr	r6, [r4, #0]
 8003c02:	1d18      	adds	r0, r3, #4
 8003c04:	6961      	ldr	r1, [r4, #20]
 8003c06:	6028      	str	r0, [r5, #0]
 8003c08:	0635      	lsls	r5, r6, #24
 8003c0a:	681b      	ldr	r3, [r3, #0]
 8003c0c:	d501      	bpl.n	8003c12 <_printf_i+0x1c6>
 8003c0e:	6019      	str	r1, [r3, #0]
 8003c10:	e002      	b.n	8003c18 <_printf_i+0x1cc>
 8003c12:	0670      	lsls	r0, r6, #25
 8003c14:	d5fb      	bpl.n	8003c0e <_printf_i+0x1c2>
 8003c16:	8019      	strh	r1, [r3, #0]
 8003c18:	2300      	movs	r3, #0
 8003c1a:	4615      	mov	r5, r2
 8003c1c:	6123      	str	r3, [r4, #16]
 8003c1e:	e7bc      	b.n	8003b9a <_printf_i+0x14e>
 8003c20:	682b      	ldr	r3, [r5, #0]
 8003c22:	2100      	movs	r1, #0
 8003c24:	1d1a      	adds	r2, r3, #4
 8003c26:	602a      	str	r2, [r5, #0]
 8003c28:	681d      	ldr	r5, [r3, #0]
 8003c2a:	6862      	ldr	r2, [r4, #4]
 8003c2c:	4628      	mov	r0, r5
 8003c2e:	f000 f96d 	bl	8003f0c <memchr>
 8003c32:	b108      	cbz	r0, 8003c38 <_printf_i+0x1ec>
 8003c34:	1b40      	subs	r0, r0, r5
 8003c36:	6060      	str	r0, [r4, #4]
 8003c38:	6863      	ldr	r3, [r4, #4]
 8003c3a:	6123      	str	r3, [r4, #16]
 8003c3c:	2300      	movs	r3, #0
 8003c3e:	f884 3043 	strb.w	r3, [r4, #67]	; 0x43
 8003c42:	e7aa      	b.n	8003b9a <_printf_i+0x14e>
 8003c44:	462a      	mov	r2, r5
 8003c46:	4649      	mov	r1, r9
 8003c48:	4640      	mov	r0, r8
 8003c4a:	6923      	ldr	r3, [r4, #16]
 8003c4c:	47d0      	blx	sl
 8003c4e:	3001      	adds	r0, #1
 8003c50:	d0ad      	beq.n	8003bae <_printf_i+0x162>
 8003c52:	6823      	ldr	r3, [r4, #0]
 8003c54:	079b      	lsls	r3, r3, #30
 8003c56:	d413      	bmi.n	8003c80 <_printf_i+0x234>
 8003c58:	68e0      	ldr	r0, [r4, #12]
 8003c5a:	9b03      	ldr	r3, [sp, #12]
 8003c5c:	4298      	cmp	r0, r3
 8003c5e:	bfb8      	it	lt
 8003c60:	4618      	movlt	r0, r3
 8003c62:	e7a6      	b.n	8003bb2 <_printf_i+0x166>
 8003c64:	2301      	movs	r3, #1
 8003c66:	4632      	mov	r2, r6
 8003c68:	4649      	mov	r1, r9
 8003c6a:	4640      	mov	r0, r8
 8003c6c:	47d0      	blx	sl
 8003c6e:	3001      	adds	r0, #1
 8003c70:	d09d      	beq.n	8003bae <_printf_i+0x162>
 8003c72:	3501      	adds	r5, #1
 8003c74:	68e3      	ldr	r3, [r4, #12]
 8003c76:	9903      	ldr	r1, [sp, #12]
 8003c78:	1a5b      	subs	r3, r3, r1
 8003c7a:	42ab      	cmp	r3, r5
 8003c7c:	dcf2      	bgt.n	8003c64 <_printf_i+0x218>
 8003c7e:	e7eb      	b.n	8003c58 <_printf_i+0x20c>
 8003c80:	2500      	movs	r5, #0
 8003c82:	f104 0619 	add.w	r6, r4, #25
 8003c86:	e7f5      	b.n	8003c74 <_printf_i+0x228>
 8003c88:	08003fbb 	.word	0x08003fbb
 8003c8c:	08003fcc 	.word	0x08003fcc

08003c90 <__sflush_r>:
 8003c90:	898a      	ldrh	r2, [r1, #12]
 8003c92:	b5f8      	push	{r3, r4, r5, r6, r7, lr}
 8003c94:	4605      	mov	r5, r0
 8003c96:	0710      	lsls	r0, r2, #28
 8003c98:	460c      	mov	r4, r1
 8003c9a:	d457      	bmi.n	8003d4c <__sflush_r+0xbc>
 8003c9c:	684b      	ldr	r3, [r1, #4]
 8003c9e:	2b00      	cmp	r3, #0
 8003ca0:	dc04      	bgt.n	8003cac <__sflush_r+0x1c>
 8003ca2:	6c0b      	ldr	r3, [r1, #64]	; 0x40
 8003ca4:	2b00      	cmp	r3, #0
 8003ca6:	dc01      	bgt.n	8003cac <__sflush_r+0x1c>
 8003ca8:	2000      	movs	r0, #0
 8003caa:	bdf8      	pop	{r3, r4, r5, r6, r7, pc}
 8003cac:	6ae6      	ldr	r6, [r4, #44]	; 0x2c
 8003cae:	2e00      	cmp	r6, #0
 8003cb0:	d0fa      	beq.n	8003ca8 <__sflush_r+0x18>
 8003cb2:	2300      	movs	r3, #0
 8003cb4:	f412 5280 	ands.w	r2, r2, #4096	; 0x1000
 8003cb8:	682f      	ldr	r7, [r5, #0]
 8003cba:	6a21      	ldr	r1, [r4, #32]
 8003cbc:	602b      	str	r3, [r5, #0]
 8003cbe:	d032      	beq.n	8003d26 <__sflush_r+0x96>
 8003cc0:	6d60      	ldr	r0, [r4, #84]	; 0x54
 8003cc2:	89a3      	ldrh	r3, [r4, #12]
 8003cc4:	075a      	lsls	r2, r3, #29
 8003cc6:	d505      	bpl.n	8003cd4 <__sflush_r+0x44>
 8003cc8:	6863      	ldr	r3, [r4, #4]
 8003cca:	1ac0      	subs	r0, r0, r3
 8003ccc:	6b63      	ldr	r3, [r4, #52]	; 0x34
 8003cce:	b10b      	cbz	r3, 8003cd4 <__sflush_r+0x44>
 8003cd0:	6c23      	ldr	r3, [r4, #64]	; 0x40
 8003cd2:	1ac0      	subs	r0, r0, r3
 8003cd4:	2300      	movs	r3, #0
 8003cd6:	4602      	mov	r2, r0
 8003cd8:	6ae6      	ldr	r6, [r4, #44]	; 0x2c
 8003cda:	4628      	mov	r0, r5
 8003cdc:	6a21      	ldr	r1, [r4, #32]
 8003cde:	47b0      	blx	r6
 8003ce0:	1c43      	adds	r3, r0, #1
 8003ce2:	89a3      	ldrh	r3, [r4, #12]
 8003ce4:	d106      	bne.n	8003cf4 <__sflush_r+0x64>
 8003ce6:	6829      	ldr	r1, [r5, #0]
 8003ce8:	291d      	cmp	r1, #29
 8003cea:	d82b      	bhi.n	8003d44 <__sflush_r+0xb4>
 8003cec:	4a28      	ldr	r2, [pc, #160]	; (8003d90 <__sflush_r+0x100>)
 8003cee:	410a      	asrs	r2, r1
 8003cf0:	07d6      	lsls	r6, r2, #31
 8003cf2:	d427      	bmi.n	8003d44 <__sflush_r+0xb4>
 8003cf4:	2200      	movs	r2, #0
 8003cf6:	6062      	str	r2, [r4, #4]
 8003cf8:	6922      	ldr	r2, [r4, #16]
 8003cfa:	04d9      	lsls	r1, r3, #19
 8003cfc:	6022      	str	r2, [r4, #0]
 8003cfe:	d504      	bpl.n	8003d0a <__sflush_r+0x7a>
 8003d00:	1c42      	adds	r2, r0, #1
 8003d02:	d101      	bne.n	8003d08 <__sflush_r+0x78>
 8003d04:	682b      	ldr	r3, [r5, #0]
 8003d06:	b903      	cbnz	r3, 8003d0a <__sflush_r+0x7a>
 8003d08:	6560      	str	r0, [r4, #84]	; 0x54
 8003d0a:	6b61      	ldr	r1, [r4, #52]	; 0x34
 8003d0c:	602f      	str	r7, [r5, #0]
 8003d0e:	2900      	cmp	r1, #0
 8003d10:	d0ca      	beq.n	8003ca8 <__sflush_r+0x18>
 8003d12:	f104 0344 	add.w	r3, r4, #68	; 0x44
 8003d16:	4299      	cmp	r1, r3
 8003d18:	d002      	beq.n	8003d20 <__sflush_r+0x90>
 8003d1a:	4628      	mov	r0, r5
 8003d1c:	f7ff fbee 	bl	80034fc <_free_r>
 8003d20:	2000      	movs	r0, #0
 8003d22:	6360      	str	r0, [r4, #52]	; 0x34
 8003d24:	e7c1      	b.n	8003caa <__sflush_r+0x1a>
 8003d26:	2301      	movs	r3, #1
 8003d28:	4628      	mov	r0, r5
 8003d2a:	47b0      	blx	r6
 8003d2c:	1c41      	adds	r1, r0, #1
 8003d2e:	d1c8      	bne.n	8003cc2 <__sflush_r+0x32>
 8003d30:	682b      	ldr	r3, [r5, #0]
 8003d32:	2b00      	cmp	r3, #0
 8003d34:	d0c5      	beq.n	8003cc2 <__sflush_r+0x32>
 8003d36:	2b1d      	cmp	r3, #29
 8003d38:	d001      	beq.n	8003d3e <__sflush_r+0xae>
 8003d3a:	2b16      	cmp	r3, #22
 8003d3c:	d101      	bne.n	8003d42 <__sflush_r+0xb2>
 8003d3e:	602f      	str	r7, [r5, #0]
 8003d40:	e7b2      	b.n	8003ca8 <__sflush_r+0x18>
 8003d42:	89a3      	ldrh	r3, [r4, #12]
 8003d44:	f043 0340 	orr.w	r3, r3, #64	; 0x40
 8003d48:	81a3      	strh	r3, [r4, #12]
 8003d4a:	e7ae      	b.n	8003caa <__sflush_r+0x1a>
 8003d4c:	690f      	ldr	r7, [r1, #16]
 8003d4e:	2f00      	cmp	r7, #0
 8003d50:	d0aa      	beq.n	8003ca8 <__sflush_r+0x18>
 8003d52:	0793      	lsls	r3, r2, #30
 8003d54:	bf18      	it	ne
 8003d56:	2300      	movne	r3, #0
 8003d58:	680e      	ldr	r6, [r1, #0]
 8003d5a:	bf08      	it	eq
 8003d5c:	694b      	ldreq	r3, [r1, #20]
 8003d5e:	1bf6      	subs	r6, r6, r7
 8003d60:	600f      	str	r7, [r1, #0]
 8003d62:	608b      	str	r3, [r1, #8]
 8003d64:	2e00      	cmp	r6, #0
 8003d66:	dd9f      	ble.n	8003ca8 <__sflush_r+0x18>
 8003d68:	4633      	mov	r3, r6
 8003d6a:	463a      	mov	r2, r7
 8003d6c:	4628      	mov	r0, r5
 8003d6e:	6a21      	ldr	r1, [r4, #32]
 8003d70:	f8d4 c028 	ldr.w	ip, [r4, #40]	; 0x28
 8003d74:	47e0      	blx	ip
 8003d76:	2800      	cmp	r0, #0
 8003d78:	dc06      	bgt.n	8003d88 <__sflush_r+0xf8>
 8003d7a:	89a3      	ldrh	r3, [r4, #12]
 8003d7c:	f04f 30ff 	mov.w	r0, #4294967295
 8003d80:	f043 0340 	orr.w	r3, r3, #64	; 0x40
 8003d84:	81a3      	strh	r3, [r4, #12]
 8003d86:	e790      	b.n	8003caa <__sflush_r+0x1a>
 8003d88:	4407      	add	r7, r0
 8003d8a:	1a36      	subs	r6, r6, r0
 8003d8c:	e7ea      	b.n	8003d64 <__sflush_r+0xd4>
 8003d8e:	bf00      	nop
 8003d90:	dfbffffe 	.word	0xdfbffffe

08003d94 <_fflush_r>:
 8003d94:	b538      	push	{r3, r4, r5, lr}
 8003d96:	690b      	ldr	r3, [r1, #16]
 8003d98:	4605      	mov	r5, r0
 8003d9a:	460c      	mov	r4, r1
 8003d9c:	b913      	cbnz	r3, 8003da4 <_fflush_r+0x10>
 8003d9e:	2500      	movs	r5, #0
 8003da0:	4628      	mov	r0, r5
 8003da2:	bd38      	pop	{r3, r4, r5, pc}
 8003da4:	b118      	cbz	r0, 8003dae <_fflush_r+0x1a>
 8003da6:	6a03      	ldr	r3, [r0, #32]
 8003da8:	b90b      	cbnz	r3, 8003dae <_fflush_r+0x1a>
 8003daa:	f7ff f9af 	bl	800310c <__sinit>
 8003dae:	f9b4 300c 	ldrsh.w	r3, [r4, #12]
 8003db2:	2b00      	cmp	r3, #0
 8003db4:	d0f3      	beq.n	8003d9e <_fflush_r+0xa>
 8003db6:	6e62      	ldr	r2, [r4, #100]	; 0x64
 8003db8:	07d0      	lsls	r0, r2, #31
 8003dba:	d404      	bmi.n	8003dc6 <_fflush_r+0x32>
 8003dbc:	0599      	lsls	r1, r3, #22
 8003dbe:	d402      	bmi.n	8003dc6 <_fflush_r+0x32>
 8003dc0:	6da0      	ldr	r0, [r4, #88]	; 0x58
 8003dc2:	f7ff fb98 	bl	80034f6 <__retarget_lock_acquire_recursive>
 8003dc6:	4628      	mov	r0, r5
 8003dc8:	4621      	mov	r1, r4
 8003dca:	f7ff ff61 	bl	8003c90 <__sflush_r>
 8003dce:	6e63      	ldr	r3, [r4, #100]	; 0x64
 8003dd0:	4605      	mov	r5, r0
 8003dd2:	07da      	lsls	r2, r3, #31
 8003dd4:	d4e4      	bmi.n	8003da0 <_fflush_r+0xc>
 8003dd6:	89a3      	ldrh	r3, [r4, #12]
 8003dd8:	059b      	lsls	r3, r3, #22
 8003dda:	d4e1      	bmi.n	8003da0 <_fflush_r+0xc>
 8003ddc:	6da0      	ldr	r0, [r4, #88]	; 0x58
 8003dde:	f7ff fb8b 	bl	80034f8 <__retarget_lock_release_recursive>
 8003de2:	e7dd      	b.n	8003da0 <_fflush_r+0xc>

08003de4 <__swhatbuf_r>:
 8003de4:	b570      	push	{r4, r5, r6, lr}
 8003de6:	460c      	mov	r4, r1
 8003de8:	f9b1 100e 	ldrsh.w	r1, [r1, #14]
 8003dec:	4615      	mov	r5, r2
 8003dee:	2900      	cmp	r1, #0
 8003df0:	461e      	mov	r6, r3
 8003df2:	b096      	sub	sp, #88	; 0x58
 8003df4:	da0c      	bge.n	8003e10 <__swhatbuf_r+0x2c>
 8003df6:	89a3      	ldrh	r3, [r4, #12]
 8003df8:	2100      	movs	r1, #0
 8003dfa:	f013 0f80 	tst.w	r3, #128	; 0x80
 8003dfe:	bf0c      	ite	eq
 8003e00:	f44f 6380 	moveq.w	r3, #1024	; 0x400
 8003e04:	2340      	movne	r3, #64	; 0x40
 8003e06:	2000      	movs	r0, #0
 8003e08:	6031      	str	r1, [r6, #0]
 8003e0a:	602b      	str	r3, [r5, #0]
 8003e0c:	b016      	add	sp, #88	; 0x58
 8003e0e:	bd70      	pop	{r4, r5, r6, pc}
 8003e10:	466a      	mov	r2, sp
 8003e12:	f000 f849 	bl	8003ea8 <_fstat_r>
 8003e16:	2800      	cmp	r0, #0
 8003e18:	dbed      	blt.n	8003df6 <__swhatbuf_r+0x12>
 8003e1a:	9901      	ldr	r1, [sp, #4]
 8003e1c:	f401 4170 	and.w	r1, r1, #61440	; 0xf000
 8003e20:	f5a1 5300 	sub.w	r3, r1, #8192	; 0x2000
 8003e24:	4259      	negs	r1, r3
 8003e26:	4159      	adcs	r1, r3
 8003e28:	f44f 6380 	mov.w	r3, #1024	; 0x400
 8003e2c:	e7eb      	b.n	8003e06 <__swhatbuf_r+0x22>

08003e2e <__smakebuf_r>:
 8003e2e:	898b      	ldrh	r3, [r1, #12]
 8003e30:	b573      	push	{r0, r1, r4, r5, r6, lr}
 8003e32:	079d      	lsls	r5, r3, #30
 8003e34:	4606      	mov	r6, r0
 8003e36:	460c      	mov	r4, r1
 8003e38:	d507      	bpl.n	8003e4a <__smakebuf_r+0x1c>
 8003e3a:	f104 0347 	add.w	r3, r4, #71	; 0x47
 8003e3e:	6023      	str	r3, [r4, #0]
 8003e40:	6123      	str	r3, [r4, #16]
 8003e42:	2301      	movs	r3, #1
 8003e44:	6163      	str	r3, [r4, #20]
 8003e46:	b002      	add	sp, #8
 8003e48:	bd70      	pop	{r4, r5, r6, pc}
 8003e4a:	466a      	mov	r2, sp
 8003e4c:	ab01      	add	r3, sp, #4
 8003e4e:	f7ff ffc9 	bl	8003de4 <__swhatbuf_r>
 8003e52:	9900      	ldr	r1, [sp, #0]
 8003e54:	4605      	mov	r5, r0
 8003e56:	4630      	mov	r0, r6
 8003e58:	f7ff fbb8 	bl	80035cc <_malloc_r>
 8003e5c:	b948      	cbnz	r0, 8003e72 <__smakebuf_r+0x44>
 8003e5e:	f9b4 300c 	ldrsh.w	r3, [r4, #12]
 8003e62:	059a      	lsls	r2, r3, #22
 8003e64:	d4ef      	bmi.n	8003e46 <__smakebuf_r+0x18>
 8003e66:	f023 0303 	bic.w	r3, r3, #3
 8003e6a:	f043 0302 	orr.w	r3, r3, #2
 8003e6e:	81a3      	strh	r3, [r4, #12]
 8003e70:	e7e3      	b.n	8003e3a <__smakebuf_r+0xc>
 8003e72:	89a3      	ldrh	r3, [r4, #12]
 8003e74:	6020      	str	r0, [r4, #0]
 8003e76:	f043 0380 	orr.w	r3, r3, #128	; 0x80
 8003e7a:	81a3      	strh	r3, [r4, #12]
 8003e7c:	9b00      	ldr	r3, [sp, #0]
 8003e7e:	6120      	str	r0, [r4, #16]
 8003e80:	6163      	str	r3, [r4, #20]
 8003e82:	9b01      	ldr	r3, [sp, #4]
 8003e84:	b15b      	cbz	r3, 8003e9e <__smakebuf_r+0x70>
 8003e86:	4630      	mov	r0, r6
 8003e88:	f9b4 100e 	ldrsh.w	r1, [r4, #14]
 8003e8c:	f000 f81e 	bl	8003ecc <_isatty_r>
 8003e90:	b128      	cbz	r0, 8003e9e <__smakebuf_r+0x70>
 8003e92:	89a3      	ldrh	r3, [r4, #12]
 8003e94:	f023 0303 	bic.w	r3, r3, #3
 8003e98:	f043 0301 	orr.w	r3, r3, #1
 8003e9c:	81a3      	strh	r3, [r4, #12]
 8003e9e:	89a3      	ldrh	r3, [r4, #12]
 8003ea0:	431d      	orrs	r5, r3
 8003ea2:	81a5      	strh	r5, [r4, #12]
 8003ea4:	e7cf      	b.n	8003e46 <__smakebuf_r+0x18>
	...

08003ea8 <_fstat_r>:
 8003ea8:	b538      	push	{r3, r4, r5, lr}
 8003eaa:	2300      	movs	r3, #0
 8003eac:	4d06      	ldr	r5, [pc, #24]	; (8003ec8 <_fstat_r+0x20>)
 8003eae:	4604      	mov	r4, r0
 8003eb0:	4608      	mov	r0, r1
 8003eb2:	4611      	mov	r1, r2
 8003eb4:	602b      	str	r3, [r5, #0]
 8003eb6:	f7fd f919 	bl	80010ec <_fstat>
 8003eba:	1c43      	adds	r3, r0, #1
 8003ebc:	d102      	bne.n	8003ec4 <_fstat_r+0x1c>
 8003ebe:	682b      	ldr	r3, [r5, #0]
 8003ec0:	b103      	cbz	r3, 8003ec4 <_fstat_r+0x1c>
 8003ec2:	6023      	str	r3, [r4, #0]
 8003ec4:	bd38      	pop	{r3, r4, r5, pc}
 8003ec6:	bf00      	nop
 8003ec8:	20000594 	.word	0x20000594

08003ecc <_isatty_r>:
 8003ecc:	b538      	push	{r3, r4, r5, lr}
 8003ece:	2300      	movs	r3, #0
 8003ed0:	4d05      	ldr	r5, [pc, #20]	; (8003ee8 <_isatty_r+0x1c>)
 8003ed2:	4604      	mov	r4, r0
 8003ed4:	4608      	mov	r0, r1
 8003ed6:	602b      	str	r3, [r5, #0]
 8003ed8:	f7fd f90d 	bl	80010f6 <_isatty>
 8003edc:	1c43      	adds	r3, r0, #1
 8003ede:	d102      	bne.n	8003ee6 <_isatty_r+0x1a>
 8003ee0:	682b      	ldr	r3, [r5, #0]
 8003ee2:	b103      	cbz	r3, 8003ee6 <_isatty_r+0x1a>
 8003ee4:	6023      	str	r3, [r4, #0]
 8003ee6:	bd38      	pop	{r3, r4, r5, pc}
 8003ee8:	20000594 	.word	0x20000594

08003eec <_sbrk_r>:
 8003eec:	b538      	push	{r3, r4, r5, lr}
 8003eee:	2300      	movs	r3, #0
 8003ef0:	4d05      	ldr	r5, [pc, #20]	; (8003f08 <_sbrk_r+0x1c>)
 8003ef2:	4604      	mov	r4, r0
 8003ef4:	4608      	mov	r0, r1
 8003ef6:	602b      	str	r3, [r5, #0]
 8003ef8:	f7fd f902 	bl	8001100 <_sbrk>
 8003efc:	1c43      	adds	r3, r0, #1
 8003efe:	d102      	bne.n	8003f06 <_sbrk_r+0x1a>
 8003f00:	682b      	ldr	r3, [r5, #0]
 8003f02:	b103      	cbz	r3, 8003f06 <_sbrk_r+0x1a>
 8003f04:	6023      	str	r3, [r4, #0]
 8003f06:	bd38      	pop	{r3, r4, r5, pc}
 8003f08:	20000594 	.word	0x20000594

08003f0c <memchr>:
 8003f0c:	4603      	mov	r3, r0
 8003f0e:	b510      	push	{r4, lr}
 8003f10:	b2c9      	uxtb	r1, r1
 8003f12:	4402      	add	r2, r0
 8003f14:	4293      	cmp	r3, r2
 8003f16:	4618      	mov	r0, r3
 8003f18:	d101      	bne.n	8003f1e <memchr+0x12>
 8003f1a:	2000      	movs	r0, #0
 8003f1c:	e003      	b.n	8003f26 <memchr+0x1a>
 8003f1e:	7804      	ldrb	r4, [r0, #0]
 8003f20:	3301      	adds	r3, #1
 8003f22:	428c      	cmp	r4, r1
 8003f24:	d1f6      	bne.n	8003f14 <memchr+0x8>
 8003f26:	bd10      	pop	{r4, pc}

08003f28 <_init>:
 8003f28:	b5f8      	push	{r3, r4, r5, r6, r7, lr}
 8003f2a:	bf00      	nop
 8003f2c:	bcf8      	pop	{r3, r4, r5, r6, r7}
 8003f2e:	bc08      	pop	{r3}
 8003f30:	469e      	mov	lr, r3
 8003f32:	4770      	bx	lr

08003f34 <_fini>:
 8003f34:	b5f8      	push	{r3, r4, r5, r6, r7, lr}
 8003f36:	bf00      	nop
 8003f38:	bcf8      	pop	{r3, r4, r5, r6, r7}
 8003f3a:	bc08      	pop	{r3}
 8003f3c:	469e      	mov	lr, r3
 8003f3e:	4770      	bx	lr
